Component: ARM Compiler 5.06 update 1 (build 61) Tool: armlink [4d35a8]

==============================================================================

Section Cross References

    main.o(i.BSP_Init) refers to io.o(i.configIO_Init) for configIO_Init
    main.o(i.BSP_Init) refers to can.o(i.configCAN_Init) for configCAN_Init
    main.o(i.BSP_Init) refers to dma.o(i.configDMA_Init) for configDMA_Init
    main.o(i.BSP_Init) refers to nvic.o(i.configNVIC_Init) for configNVIC_Init
    main.o(i.BSP_Init) refers to uart.o(i.configUART_Init) for configUART_Init
    main.o(i.Hardware_Init) refers to hi219m.o(i.configHi219m_ParaInit) for configHi219m_ParaInit
    main.o(i.Hardware_Init) refers to chassis_behavior.o(i.configChassis_ParaInit) for configChassis_ParaInit
    main.o(i.Hardware_Init) refers to vofa.o(i.configVOFA_ParaInit) for configVOFA_ParaInit
    main.o(i.main) refers to main.o(i.BSP_Init) for BSP_Init
    main.o(i.main) refers to main.o(i.Hardware_Init) for Hardware_Init
    main.o(i.main) refers to user_task.o(i.Task_Init) for Task_Init
    main.o(i.main) refers to tasks.o(i.vTaskStartScheduler) for vTaskStartScheduler
    it.o(i.CAN1_RX0_IRQHandler) refers to stm32f4xx_can.o(i.CAN_GetITStatus) for CAN_GetITStatus
    it.o(i.CAN1_RX0_IRQHandler) refers to stm32f4xx_can.o(i.CAN_Receive) for CAN_Receive
    it.o(i.CAN1_RX0_IRQHandler) refers to motor.o(i.fnMotor_CanRecvDataDecode) for fnMotor_CanRecvDataDecode
    it.o(i.CAN1_RX0_IRQHandler) refers to stm32f4xx_can.o(i.CAN_ClearITPendingBit) for CAN_ClearITPendingBit
    it.o(i.CAN1_RX0_IRQHandler) refers to stm32f4xx_can.o(i.CAN_ClearFlag) for CAN_ClearFlag
    it.o(i.CAN1_RX0_IRQHandler) refers to it.o(.bss) for P_stCAN1DataRecv
    it.o(i.CAN1_TX_IRQHandler) refers to stm32f4xx_can.o(i.CAN_GetITStatus) for CAN_GetITStatus
    it.o(i.CAN1_TX_IRQHandler) refers to stm32f4xx_can.o(i.CAN_ClearITPendingBit) for CAN_ClearITPendingBit
    it.o(i.CAN2_RX0_IRQHandler) refers to stm32f4xx_can.o(i.CAN_GetITStatus) for CAN_GetITStatus
    it.o(i.CAN2_RX0_IRQHandler) refers to stm32f4xx_can.o(i.CAN_Receive) for CAN_Receive
    it.o(i.CAN2_RX0_IRQHandler) refers to motor.o(i.fnMotor_CanRecvDataDecode) for fnMotor_CanRecvDataDecode
    it.o(i.CAN2_RX0_IRQHandler) refers to stm32f4xx_can.o(i.CAN_ClearITPendingBit) for CAN_ClearITPendingBit
    it.o(i.CAN2_RX0_IRQHandler) refers to stm32f4xx_can.o(i.CAN_ClearFlag) for CAN_ClearFlag
    it.o(i.CAN2_RX0_IRQHandler) refers to it.o(.bss) for P_stCAN2DataRecv
    it.o(i.CAN2_TX_IRQHandler) refers to stm32f4xx_can.o(i.CAN_GetITStatus) for CAN_GetITStatus
    it.o(i.CAN2_TX_IRQHandler) refers to stm32f4xx_can.o(i.CAN_ClearITPendingBit) for CAN_ClearITPendingBit
    it.o(i.USART1_IRQHandler) refers to stm32f4xx_usart.o(i.USART_GetITStatus) for USART_GetITStatus
    it.o(i.USART1_IRQHandler) refers to stm32f4xx_dma.o(i.DMA_GetCurrentMemoryTarget) for DMA_GetCurrentMemoryTarget
    it.o(i.USART1_IRQHandler) refers to stm32f4xx_dma.o(i.DMA_Cmd) for DMA_Cmd
    it.o(i.USART1_IRQHandler) refers to stm32f4xx_dma.o(i.DMA_GetCurrDataCounter) for DMA_GetCurrDataCounter
    it.o(i.USART1_IRQHandler) refers to rm_remote.o(i.fnRemote_RawDataDecode) for fnRemote_RawDataDecode
    it.o(i.USART1_IRQHandler) refers to it.o(.data) for rx_len
    it.o(i.USART1_IRQHandler) refers to rm_remote.o(.bss) for P_uintRemote_Data_Buf
    it.o(i.USART6_IRQHandler) refers to stm32f4xx_usart.o(i.USART_GetITStatus) for USART_GetITStatus
    it.o(i.USART6_IRQHandler) refers to stm32f4xx_dma.o(i.DMA_Cmd) for DMA_Cmd
    it.o(i.USART6_IRQHandler) refers to judge.o(i.RM_Judge_DataEnqueue) for RM_Judge_DataEnqueue
    it.o(i.USART6_IRQHandler) refers to stm32f4xx_dma.o(i.DMA_ClearFlag) for DMA_ClearFlag
    it.o(i.USART6_IRQHandler) refers to stm32f4xx_dma.o(i.DMA_GetCmdStatus) for DMA_GetCmdStatus
    it.o(i.USART6_IRQHandler) refers to stm32f4xx_dma.o(i.DMA_SetCurrDataCounter) for DMA_SetCurrDataCounter
    it.o(i.USART6_IRQHandler) refers to queue.o(i.xQueueGiveFromISR) for xQueueGiveFromISR
    it.o(i.USART6_IRQHandler) refers to it.o(.data) for P_nJudgeBuffLength
    it.o(i.USART6_IRQHandler) refers to judge.o(.bss) for P_stJudgeDataArrayListBuff
    it.o(i.USART6_IRQHandler) refers to user_task.o(.data) for JudgeDataDecode_Binary
    io.o(i.configIO_Init) refers to stm32f4xx_rcc.o(i.RCC_AHB1PeriphClockCmd) for RCC_AHB1PeriphClockCmd
    io.o(i.configIO_Init) refers to stm32f4xx_gpio.o(i.GPIO_Init) for GPIO_Init
    io.o(i.configIO_Init) refers to stm32f4xx_gpio.o(i.GPIO_SetBits) for GPIO_SetBits
    io.o(i.configIO_Init) refers to stm32f4xx_gpio.o(i.GPIO_PinAFConfig) for GPIO_PinAFConfig
    io.o(i.configIO_Init) refers to stm32f4xx_gpio.o(i.GPIO_ResetBits) for GPIO_ResetBits
    can.o(i.configCAN_Init) refers to stm32f4xx_rcc.o(i.RCC_APB1PeriphClockCmd) for RCC_APB1PeriphClockCmd
    can.o(i.configCAN_Init) refers to stm32f4xx_can.o(i.CAN_DeInit) for CAN_DeInit
    can.o(i.configCAN_Init) refers to stm32f4xx_can.o(i.CAN_StructInit) for CAN_StructInit
    can.o(i.configCAN_Init) refers to stm32f4xx_can.o(i.CAN_Init) for CAN_Init
    can.o(i.configCAN_Init) refers to stm32f4xx_can.o(i.CAN_FilterInit) for CAN_FilterInit
    can.o(i.configCAN_Init) refers to stm32f4xx_can.o(i.CAN_ITConfig) for CAN_ITConfig
    dma.o(i.configDMA_Init) refers to stm32f4xx_rcc.o(i.RCC_AHB1PeriphClockCmd) for RCC_AHB1PeriphClockCmd
    dma.o(i.configDMA_Init) refers to stm32f4xx_dma.o(i.DMA_DeInit) for DMA_DeInit
    dma.o(i.configDMA_Init) refers to stm32f4xx_dma.o(i.DMA_StructInit) for DMA_StructInit
    dma.o(i.configDMA_Init) refers to stm32f4xx_dma.o(i.DMA_Init) for DMA_Init
    dma.o(i.configDMA_Init) refers to stm32f4xx_dma.o(i.DMA_DoubleBufferModeConfig) for DMA_DoubleBufferModeConfig
    dma.o(i.configDMA_Init) refers to stm32f4xx_dma.o(i.DMA_DoubleBufferModeCmd) for DMA_DoubleBufferModeCmd
    dma.o(i.configDMA_Init) refers to stm32f4xx_dma.o(i.DMA_Cmd) for DMA_Cmd
    dma.o(i.configDMA_Init) refers to rm_remote.o(.bss) for P_uintRemote_Data_Buf
    dma.o(i.configDMA_Init) refers to minipc.o(.bss) for P_ucPCVisionDataBuffer
    dma.o(i.configDMA_Init) refers to hi219m.o(.bss) for P_uintH219MDataBuffer
    dma.o(i.configDMA_Init) refers to judge.o(.bss) for P_ucJudgeDataBuffer
    nvic.o(i.configNVIC_Init) refers to misc.o(i.NVIC_PriorityGroupConfig) for NVIC_PriorityGroupConfig
    nvic.o(i.configNVIC_Init) refers to misc.o(i.NVIC_Init) for NVIC_Init
    uart.o(i.configUART_Init) refers to stm32f4xx_rcc.o(i.RCC_APB2PeriphClockCmd) for RCC_APB2PeriphClockCmd
    uart.o(i.configUART_Init) refers to stm32f4xx_rcc.o(i.RCC_APB1PeriphClockCmd) for RCC_APB1PeriphClockCmd
    uart.o(i.configUART_Init) refers to stm32f4xx_usart.o(i.USART_DeInit) for USART_DeInit
    uart.o(i.configUART_Init) refers to stm32f4xx_usart.o(i.USART_StructInit) for USART_StructInit
    uart.o(i.configUART_Init) refers to stm32f4xx_usart.o(i.USART_Init) for USART_Init
    uart.o(i.configUART_Init) refers to stm32f4xx_usart.o(i.USART_DMACmd) for USART_DMACmd
    uart.o(i.configUART_Init) refers to stm32f4xx_usart.o(i.USART_ITConfig) for USART_ITConfig
    uart.o(i.configUART_Init) refers to stm32f4xx_usart.o(i.USART_Cmd) for USART_Cmd
    motor.o(i.fnM3508_SpeedCotrol) refers to pid.o(i.fnPID_SetTarget) for fnPID_SetTarget
    motor.o(i.fnM3508_SpeedCotrol) refers to pid.o(i.fnPID_SetFeedback) for fnPID_SetFeedback
    motor.o(i.fnM3508_SpeedCotrol) refers to pid.o(i.fnPID_Calc) for fnPID_Calc
    motor.o(i.fnM3508_SpeedCotrol) refers to pid.o(i.fnPID_GetOutput) for fnPID_GetOutput
    motor.o(i.fnM3508_SpeedCotrol) refers to motor.o(i.fnMotor_SetCurrentVal) for fnMotor_SetCurrentVal
    motor.o(i.fnM6020_Cotrol) refers to pid.o(i.fnPID_SetTarget) for fnPID_SetTarget
    motor.o(i.fnM6020_Cotrol) refers to pid.o(i.fnPID_SetFeedback) for fnPID_SetFeedback
    motor.o(i.fnM6020_Cotrol) refers to pid.o(i.fnPID_Calc) for fnPID_Calc
    motor.o(i.fnM6020_Cotrol) refers to pid.o(i.fnPID_GetOutput) for fnPID_GetOutput
    motor.o(i.fnM6020_Cotrol) refers to motor.o(i.fnMotor_SetCurrentVal) for fnMotor_SetCurrentVal
    motor.o(i.fnMotor_CanRecvDataDecode) refers to motor.o(i.s_fnM3508_RawDataDecode) for s_fnM3508_RawDataDecode
    motor.o(i.fnMotor_CanRecvDataDecode) refers to motor.o(i.s_fnM6020_RawDataDecode) for s_fnM6020_RawDataDecode
    motor.o(i.fnMotor_CanRecvDataDecode) refers to motor.o(.data) for P_stMotor_ChassisF
    motor.o(i.fnMotor_SetCurrentVal) refers to motor.o(i.s_fnMotor_CANSend) for s_fnMotor_CANSend
    motor.o(i.fnMotor_SetCurrentVal) refers to motor.o(.bss) for MotorSendData1_4CAN1
    motor.o(i.s_fnM6020_RawDataDecode) refers to f2d.o(x$fpl$f2d) for __aeabi_f2d
    motor.o(i.s_fnM6020_RawDataDecode) refers to fmod.o(i.__hardfp_fmod) for __hardfp_fmod
    motor.o(i.s_fnM6020_RawDataDecode) refers to d2f.o(x$fpl$d2f) for __aeabi_d2f
    motor.o(i.s_fnM6020_RawDataDecode) refers to motor.o(.data) for init_time
    motor.o(i.s_fnMotor_CANSend) refers to stm32f4xx_can.o(i.CAN_Transmit) for CAN_Transmit
    motor.o(i.s_fnMotor_CANSend) refers to stm32f4xx_can.o(i.CAN_TransmitStatus) for CAN_TransmitStatus
    rm_remote.o(i.fnRemote_RawDataDecode) refers to rt_memcpy_v6.o(.text) for __aeabi_memcpy
    rm_remote.o(i.fnRemote_RawDataDecode) refers to rm_remote.o(.bss) for P_stRemoteData_Recv
    rm_remote.o(i.fnRemote_RawDataDecode) refers to rm_remote.o(.data) for SBUS_First_Connected
    hi219m.o(i.configHi219m_ParaInit) refers to imu_data_decode.o(i.imu_data_decode_init) for imu_data_decode_init
    hi219m.o(i.fnHi219m_DataDecode) refers to imu_data_decode.o(i.get_raw_gyo) for get_raw_gyo
    hi219m.o(i.fnHi219m_DataDecode) refers to imu_data_decode.o(i.get_eular) for get_eular
    hi219m.o(i.fnHi219m_DataDecode) refers to imu_data_decode.o(i.get_raw_mag) for get_raw_mag
    hi219m.o(i.fnHi219m_DataDecode) refers to f2d.o(x$fpl$f2d) for __aeabi_f2d
    hi219m.o(i.fnHi219m_DataDecode) refers to atan.o(i.__hardfp_atan) for __hardfp_atan
    hi219m.o(i.fnHi219m_DataDecode) refers to daddsub_clz.o(x$fpl$dadd) for __aeabi_dadd
    hi219m.o(i.fnHi219m_DataDecode) refers to d2f.o(x$fpl$d2f) for __aeabi_d2f
    hi219m.o(i.fnHi219m_DataDecode) refers to hi219m.o(.data) for mag
    hi219m.o(i.fnHi219m_DataDecode) refers to hi219m.o(.bss) for mage
    imu_data_decode.o(i.OnDataReceived) refers to rt_memcpy_v6.o(.text) for __aeabi_memcpy
    imu_data_decode.o(i.OnDataReceived) refers to imu_data_decode.o(.data) for id
    imu_data_decode.o(i.OnDataReceived) refers to imu_data_decode.o(.bss) for eular
    imu_data_decode.o(i.get_eular) refers to imu_data_decode.o(.bss) for eular
    imu_data_decode.o(i.get_id) refers to imu_data_decode.o(.data) for id
    imu_data_decode.o(i.get_quat) refers to imu_data_decode.o(.bss) for quat
    imu_data_decode.o(i.get_raw_acc) refers to imu_data_decode.o(.data) for acc
    imu_data_decode.o(i.get_raw_gyo) refers to imu_data_decode.o(.data) for gyo
    imu_data_decode.o(i.get_raw_mag) refers to imu_data_decode.o(.data) for mag
    imu_data_decode.o(i.imu_data_decode_init) refers to packet.o(i.Packet_DecodeInit) for Packet_DecodeInit
    imu_data_decode.o(i.imu_data_decode_init) refers to imu_data_decode.o(i.OnDataReceived) for OnDataReceived
    imu_data_decode.o(i.imu_data_decode_init) refers to imu_data_decode.o(.bss) for RxPkt
    packet.o(i.Packet_AddData) refers to rt_memcpy_v6.o(.text) for __aeabi_memcpy
    packet.o(i.Packet_Begin) refers to rt_memclr_w.o(.text) for __aeabi_memclr4
    packet.o(i.Packet_CreatePingAck) refers to packet.o(i.crc16_update) for crc16_update
    packet.o(i.Packet_Decode) refers to packet.o(i.crc16_update) for crc16_update
    packet.o(i.Packet_Decode) refers to packet.o(.data) for status
    packet.o(i.Packet_DecodeInit) refers to rt_memclr_w.o(.text) for __aeabi_memclr4
    packet.o(i.Packet_DecodeInit) refers to packet.o(.data) for EventHandler
    packet.o(i.Packet_Final) refers to packet.o(i.crc16_update) for crc16_update
    vofa.o(i.DMA1_Stream6_IRQHandler) refers to stm32f4xx_dma.o(i.DMA_GetITStatus) for DMA_GetITStatus
    vofa.o(i.DMA1_Stream6_IRQHandler) refers to stm32f4xx_dma.o(i.DMA_ClearITPendingBit) for DMA_ClearITPendingBit
    vofa.o(i.DMA1_Stream6_IRQHandler) refers to stm32f4xx_dma.o(i.DMA_Cmd) for DMA_Cmd
    vofa.o(i.VOFA_Send) refers to stm32f4xx_dma.o(i.DMA_Cmd) for DMA_Cmd
    vofa.o(i.VOFA_Send) refers to vofa.o(.data) for test
    vofa.o(i.VOFA_Send) refers to vofa.o(.bss) for VOFA_Origin_Data
    vofa.o(i.configVOFA_ParaInit) refers to vofa.o(.bss) for VOFA_Send_Data
    chassis_behavior.o(i.Chassis_Cali_Calc) refers to chassis_behavior.o(.bss) for P_stChassis
    chassis_behavior.o(i.Chassis_Control) refers to f2d.o(x$fpl$f2d) for __aeabi_f2d
    chassis_behavior.o(i.Chassis_Control) refers to atan2.o(i.__hardfp_atan2) for __hardfp_atan2
    chassis_behavior.o(i.Chassis_Control) refers to d2f.o(x$fpl$d2f) for __aeabi_d2f
    chassis_behavior.o(i.Chassis_Control) refers to motor.o(.data) for P_stMotor_RudderF
    chassis_behavior.o(i.Chassis_Control) refers to chassis_behavior.o(.data) for chassis_rudder_crtangle
    chassis_behavior.o(i.Chassis_SetMode) refers to chassis_behavior.o(.data) for vx_1
    chassis_behavior.o(i.Task_ChassisCtrl) refers to chassis_behavior.o(i.Chassis_SetMode) for Chassis_SetMode
    chassis_behavior.o(i.Task_ChassisCtrl) refers to chassis_behavior.o(i.Chassis_Control) for Chassis_Control
    chassis_behavior.o(i.Task_ChassisCtrl) refers to tasks.o(i.vTaskDelayUntil) for vTaskDelayUntil
    chassis_behavior.o(i.Task_ChassisCtrl) refers to rm_remote.o(.bss) for P_stRemoteData_Recv
    chassis_behavior.o(i.Task_ChassisCtrl) refers to chassis_behavior.o(.bss) for P_stChassis
    chassis_behavior.o(i.Task_ChassisCtrl) refers to chassis_behavior.o(.data) for vx
    chassis_behavior.o(i.configChassis_ParaInit) refers to motor.o(.data) for P_stMotor_RudderF
    minipc.o(i.Task_MiniPCDataDecode) refers to tasks.o(i.vTaskDelayUntil) for vTaskDelayUntil
    minipc.o(i.Task_MiniPCDataSend) refers to tasks.o(i.vTaskDelayUntil) for vTaskDelayUntil
    user_task.o(i.Start_Task) refers to queue.o(i.xQueueGenericCreate) for xQueueGenericCreate
    user_task.o(i.Start_Task) refers to port.o(i.vPortEnterCritical) for vPortEnterCritical
    user_task.o(i.Start_Task) refers to tasks.o(i.xTaskCreate) for xTaskCreate
    user_task.o(i.Start_Task) refers to port.o(i.vPortExitCritical) for vPortExitCritical
    user_task.o(i.Start_Task) refers to tasks.o(i.vTaskDelete) for vTaskDelete
    user_task.o(i.Start_Task) refers to user_task.o(.data) for P_shH219DataDecode_Binary
    user_task.o(i.Start_Task) refers to chassis_behavior.o(i.Task_ChassisCtrl) for Task_ChassisCtrl
    user_task.o(i.Start_Task) refers to user_task.o(i.Task_Send2Gimbal) for Task_Send2Gimbal
    user_task.o(i.Start_Task) refers to minipc.o(i.Task_MiniPCDataDecode) for Task_MiniPCDataDecode
    user_task.o(i.Start_Task) refers to minipc.o(i.Task_MiniPCDataSend) for Task_MiniPCDataSend
    user_task.o(i.Start_Task) refers to user_task.o(i.Task_Hi219mDataDecode) for Task_Hi219mDataDecode
    user_task.o(i.Start_Task) refers to user_task.o(i.Task_JudgeDataDecode) for Task_JudgeDataDecode
    user_task.o(i.Task_Hi219mDataDecode) refers to queue.o(i.xQueueGenericReceive) for xQueueGenericReceive
    user_task.o(i.Task_Hi219mDataDecode) refers to packet.o(i.Packet_Decode) for Packet_Decode
    user_task.o(i.Task_Hi219mDataDecode) refers to hi219m.o(i.fnHi219m_DataDecode) for fnHi219m_DataDecode
    user_task.o(i.Task_Hi219mDataDecode) refers to tasks.o(i.vTaskDelay) for vTaskDelay
    user_task.o(i.Task_Hi219mDataDecode) refers to user_task.o(.data) for P_shH219DataDecode_Binary
    user_task.o(i.Task_Hi219mDataDecode) refers to hi219m.o(.bss) for P_uintH219MDataBuffer
    user_task.o(i.Task_Hi219mDataDecode) refers to hi219m.o(.data) for P_uintH219BuffLength
    user_task.o(i.Task_Init) refers to tasks.o(i.xTaskCreate) for xTaskCreate
    user_task.o(i.Task_Init) refers to user_task.o(.data) for StartTask_Handler
    user_task.o(i.Task_Init) refers to user_task.o(i.Start_Task) for Start_Task
    user_task.o(i.Task_JudgeDataDecode) refers to queue.o(i.xQueueGenericReceive) for xQueueGenericReceive
    user_task.o(i.Task_JudgeDataDecode) refers to judge.o(i.RM_Judge_DataDecodeByBuff) for RM_Judge_DataDecodeByBuff
    user_task.o(i.Task_JudgeDataDecode) refers to tasks.o(i.vTaskDelay) for vTaskDelay
    user_task.o(i.Task_JudgeDataDecode) refers to user_task.o(.data) for JudgeDataDecode_Binary
    user_task.o(i.Task_JudgeDataDecode) refers to judge.o(.bss) for P_ucJudgeDataBuffer
    user_task.o(i.Task_Send2Gimbal) refers to tasks.o(i.vTaskDelayUntil) for vTaskDelayUntil
    pid.o(i.fnPID_Add_Calc) refers to pid.o(i.Calc_Scope_PI) for Calc_Scope_PI
    pid.o(i.fnPID_Calc) refers to pid.o(i.Calc_Scope_PI) for Calc_Scope_PI
    crc_check.o(i.Append_CRC16_Check_Sum) refers to crc_check.o(i.Get_CRC16_Check_Sum) for Get_CRC16_Check_Sum
    crc_check.o(i.Append_CRC16_Check_Sum) refers to crc_check.o(.data) for CRC_INIT
    crc_check.o(i.Append_CRC8_Check_Sum) refers to crc_check.o(i.Get_CRC8_Check_Sum) for Get_CRC8_Check_Sum
    crc_check.o(i.Get_CRC16_Check_Sum) refers to crc_check.o(.constdata) for wCRC_Table
    crc_check.o(i.Get_CRC8_Check_Sum) refers to crc_check.o(.constdata) for CRC_INIT_Judge
    crc_check.o(i.Verify_CRC16_Check_Sum) refers to crc_check.o(i.Get_CRC16_Check_Sum) for Get_CRC16_Check_Sum
    crc_check.o(i.Verify_CRC16_Check_Sum) refers to crc_check.o(.data) for CRC_INIT
    crc_check.o(i.Verify_CRC8_Check_Sum) refers to crc_check.o(i.Get_CRC8_Check_Sum) for Get_CRC8_Check_Sum
    signal.o(i.configSignal_ParaInit) refers to signal.o(i.fnSignal_SetScale) for fnSignal_SetScale
    signal.o(i.configSignal_ParaInit) refers to signal.o(i.fnSiganl_Reset) for fnSiganl_Reset
    signal.o(i.configSignal_ParaInit) refers to signal.o(.data) for P_stvy_Ramp
    signal.o(.data) refers to signal.o(i.fnSignal_BackRamp_Generate) for fnSignal_BackRamp_Generate
    signal.o(.data) refers to signal.o(i.fnSiganl_IsOverFlow) for fnSiganl_IsOverFlow
    signal.o(.data) refers to signal.o(i.fnSiganl_Reset) for fnSiganl_Reset
    arraylist.o(i.appendValue) refers to arraylist.o(i.isFull) for isFull
    arraylist.o(i.deleteAllValue) refers to arraylist.o(i.deleteValue) for deleteValue
    arraylist.o(i.deleteRangeValue) refers to arraylist.o(i.deleteValue) for deleteValue
    arraylist.o(i.deleteValue) refers to arraylist.o(i.isEmpty) for isEmpty
    arraylist.o(i.initArray) refers to heap_4.o(i.pvPortMalloc) for pvPortMalloc
    arraylist.o(i.initArray) refers to noretval__2printf.o(.text) for __2printf
    arraylist.o(i.insertValue) refers to arraylist.o(i.isFull) for isFull
    arraylist.o(i.showArray) refers to _printf_percent.o(.ARM.Collect$$_printf_percent$$00000000) for _printf_percent
    arraylist.o(i.showArray) refers to _printf_x.o(.ARM.Collect$$_printf_percent$$0000000C) for _printf_x
    arraylist.o(i.showArray) refers to _printf_hex_int.o(.text) for _printf_longlong_hex
    arraylist.o(i.showArray) refers to arraylist.o(i.isEmpty) for isEmpty
    arraylist.o(i.showArray) refers to noretval__2printf.o(.text) for __2printf
    judge.o(i.RM_Judge_DataDecodeByBuff) refers to rt_memclr_w.o(.text) for __aeabi_memclr4
    judge.o(i.RM_Judge_DataDecodeByBuff) refers to judge.o(i.RM_Judge_DataLength) for RM_Judge_DataLength
    judge.o(i.RM_Judge_DataDecodeByBuff) refers to judge.o(i.RM_Judge_DataDequeue) for RM_Judge_DataDequeue
    judge.o(i.RM_Judge_DataDecodeByBuff) refers to rt_memcpy_w.o(.text) for __aeabi_memcpy4
    judge.o(i.RM_Judge_DataDecodeByBuff) refers to rt_memcpy_v6.o(.text) for __aeabi_memcpy
    judge.o(i.RM_Judge_DataDecodeByBuff) refers to judge.o(i.RM_Judge_FindFrame) for RM_Judge_FindFrame
    judge.o(i.RM_Judge_DataDecodeByBuff) refers to judge.o(.bss) for P_stJudgeDataArrayListBuff
    judge.o(i.RM_Judge_DataDecodeByBuff) refers to judge.o(.data) for x_c
    judge.o(i.RM_Judge_DataDequeue) refers to arraylist.o(i.getValue) for getValue
    judge.o(i.RM_Judge_DataDequeue) refers to arraylist.o(i.deleteRangeValue) for deleteRangeValue
    judge.o(i.RM_Judge_DataEnqueue) refers to arraylist.o(i.appendValue) for appendValue
    judge.o(i.RM_Judge_FindFrame) refers to arraylist.o(i.getArrayLength) for getArrayLength
    judge.o(i.RM_Judge_FindFrame) refers to arraylist.o(i.findValue) for findValue
    judge.o(i.RM_Judge_FindFrame) refers to arraylist.o(i.deleteAllValue) for deleteAllValue
    judge.o(i.RM_Judge_FindFrame) refers to arraylist.o(i.deleteRangeValue) for deleteRangeValue
    judge.o(i.RM_Judge_FindFrame) refers to judge.o(i.RM_Judge_DataLength) for RM_Judge_DataLength
    judge.o(i.RM_Judge_FindFrame) refers to crc_check.o(i.Verify_CRC8_Check_Sum) for Verify_CRC8_Check_Sum
    judge.o(i.RM_Judge_FindFrame) refers to crc_check.o(i.Verify_CRC16_Check_Sum) for Verify_CRC16_Check_Sum
    judge.o(i.Task_JudgeDataSend) refers to stm32f4xx_usart.o(i.USART_SendData) for USART_SendData
    judge.o(i.Task_JudgeDataSend) refers to stm32f4xx_usart.o(i.USART_GetFlagStatus) for USART_GetFlagStatus
    judge.o(i.Task_JudgeDataSend) refers to tasks.o(i.vTaskDelayUntil) for vTaskDelayUntil
    judge.o(i.Task_JudgeDataSend) refers to judge.o(.data) for Send_Data_Lidar
    stm32f4xx_can.o(i.CAN_DeInit) refers to stm32f4xx_rcc.o(i.RCC_APB1PeriphResetCmd) for RCC_APB1PeriphResetCmd
    stm32f4xx_can.o(i.CAN_GetITStatus) refers to stm32f4xx_can.o(i.CheckITStatus) for CheckITStatus
    stm32f4xx_gpio.o(i.GPIO_DeInit) refers to stm32f4xx_rcc.o(i.RCC_AHB1PeriphResetCmd) for RCC_AHB1PeriphResetCmd
    stm32f4xx_rcc.o(i.RCC_GetClocksFreq) refers to stm32f4xx_rcc.o(.data) for APBAHBPrescTable
    stm32f4xx_rcc.o(i.RCC_WaitForHSEStartUp) refers to stm32f4xx_rcc.o(i.RCC_GetFlagStatus) for RCC_GetFlagStatus
    stm32f4xx_tim.o(i.TIM_DeInit) refers to stm32f4xx_rcc.o(i.RCC_APB2PeriphResetCmd) for RCC_APB2PeriphResetCmd
    stm32f4xx_tim.o(i.TIM_DeInit) refers to stm32f4xx_rcc.o(i.RCC_APB1PeriphResetCmd) for RCC_APB1PeriphResetCmd
    stm32f4xx_tim.o(i.TIM_ETRClockMode1Config) refers to stm32f4xx_tim.o(i.TIM_ETRConfig) for TIM_ETRConfig
    stm32f4xx_tim.o(i.TIM_ETRClockMode2Config) refers to stm32f4xx_tim.o(i.TIM_ETRConfig) for TIM_ETRConfig
    stm32f4xx_tim.o(i.TIM_ICInit) refers to stm32f4xx_tim.o(i.TI1_Config) for TI1_Config
    stm32f4xx_tim.o(i.TIM_ICInit) refers to stm32f4xx_tim.o(i.TIM_SetIC1Prescaler) for TIM_SetIC1Prescaler
    stm32f4xx_tim.o(i.TIM_ICInit) refers to stm32f4xx_tim.o(i.TI2_Config) for TI2_Config
    stm32f4xx_tim.o(i.TIM_ICInit) refers to stm32f4xx_tim.o(i.TIM_SetIC2Prescaler) for TIM_SetIC2Prescaler
    stm32f4xx_tim.o(i.TIM_ICInit) refers to stm32f4xx_tim.o(i.TI3_Config) for TI3_Config
    stm32f4xx_tim.o(i.TIM_ICInit) refers to stm32f4xx_tim.o(i.TIM_SetIC3Prescaler) for TIM_SetIC3Prescaler
    stm32f4xx_tim.o(i.TIM_ICInit) refers to stm32f4xx_tim.o(i.TI4_Config) for TI4_Config
    stm32f4xx_tim.o(i.TIM_ICInit) refers to stm32f4xx_tim.o(i.TIM_SetIC4Prescaler) for TIM_SetIC4Prescaler
    stm32f4xx_tim.o(i.TIM_ITRxExternalClockConfig) refers to stm32f4xx_tim.o(i.TIM_SelectInputTrigger) for TIM_SelectInputTrigger
    stm32f4xx_tim.o(i.TIM_PWMIConfig) refers to stm32f4xx_tim.o(i.TI1_Config) for TI1_Config
    stm32f4xx_tim.o(i.TIM_PWMIConfig) refers to stm32f4xx_tim.o(i.TIM_SetIC1Prescaler) for TIM_SetIC1Prescaler
    stm32f4xx_tim.o(i.TIM_PWMIConfig) refers to stm32f4xx_tim.o(i.TI2_Config) for TI2_Config
    stm32f4xx_tim.o(i.TIM_PWMIConfig) refers to stm32f4xx_tim.o(i.TIM_SetIC2Prescaler) for TIM_SetIC2Prescaler
    stm32f4xx_tim.o(i.TIM_TIxExternalClockConfig) refers to stm32f4xx_tim.o(i.TI2_Config) for TI2_Config
    stm32f4xx_tim.o(i.TIM_TIxExternalClockConfig) refers to stm32f4xx_tim.o(i.TI1_Config) for TI1_Config
    stm32f4xx_tim.o(i.TIM_TIxExternalClockConfig) refers to stm32f4xx_tim.o(i.TIM_SelectInputTrigger) for TIM_SelectInputTrigger
    stm32f4xx_usart.o(i.USART_DeInit) refers to stm32f4xx_rcc.o(i.RCC_APB2PeriphResetCmd) for RCC_APB2PeriphResetCmd
    stm32f4xx_usart.o(i.USART_DeInit) refers to stm32f4xx_rcc.o(i.RCC_APB1PeriphResetCmd) for RCC_APB1PeriphResetCmd
    stm32f4xx_usart.o(i.USART_Init) refers to stm32f4xx_rcc.o(i.RCC_GetClocksFreq) for RCC_GetClocksFreq
    system_stm32f4xx.o(i.SystemCoreClockUpdate) refers to system_stm32f4xx.o(.data) for SystemCoreClock
    system_stm32f4xx.o(i.SystemInit) refers to system_stm32f4xx.o(i.SetSysClock) for SetSysClock
    startup_stm32f427x.o(STACK) refers (Special) to heapauxi.o(.text) for __use_two_region_memory
    startup_stm32f427x.o(HEAP) refers (Special) to heapauxi.o(.text) for __use_two_region_memory
    startup_stm32f427x.o(RESET) refers (Special) to heapauxi.o(.text) for __use_two_region_memory
    startup_stm32f427x.o(RESET) refers to startup_stm32f427x.o(STACK) for __initial_sp
    startup_stm32f427x.o(RESET) refers to startup_stm32f427x.o(.text) for Reset_Handler
    startup_stm32f427x.o(RESET) refers to stm32f4xx_it.o(i.NMI_Handler) for NMI_Handler
    startup_stm32f427x.o(RESET) refers to stm32f4xx_it.o(i.HardFault_Handler) for HardFault_Handler
    startup_stm32f427x.o(RESET) refers to stm32f4xx_it.o(i.MemManage_Handler) for MemManage_Handler
    startup_stm32f427x.o(RESET) refers to stm32f4xx_it.o(i.BusFault_Handler) for BusFault_Handler
    startup_stm32f427x.o(RESET) refers to stm32f4xx_it.o(i.UsageFault_Handler) for UsageFault_Handler
    startup_stm32f427x.o(RESET) refers to port.o(.emb_text) for SVC_Handler
    startup_stm32f427x.o(RESET) refers to stm32f4xx_it.o(i.DebugMon_Handler) for DebugMon_Handler
    startup_stm32f427x.o(RESET) refers to port.o(i.SysTick_Handler) for SysTick_Handler
    startup_stm32f427x.o(RESET) refers to vofa.o(i.DMA1_Stream6_IRQHandler) for DMA1_Stream6_IRQHandler
    startup_stm32f427x.o(RESET) refers to it.o(i.CAN1_TX_IRQHandler) for CAN1_TX_IRQHandler
    startup_stm32f427x.o(RESET) refers to it.o(i.CAN1_RX0_IRQHandler) for CAN1_RX0_IRQHandler
    startup_stm32f427x.o(RESET) refers to it.o(i.USART1_IRQHandler) for USART1_IRQHandler
    startup_stm32f427x.o(RESET) refers to it.o(i.USART3_IRQHandler) for USART3_IRQHandler
    startup_stm32f427x.o(RESET) refers to it.o(i.CAN2_TX_IRQHandler) for CAN2_TX_IRQHandler
    startup_stm32f427x.o(RESET) refers to it.o(i.CAN2_RX0_IRQHandler) for CAN2_RX0_IRQHandler
    startup_stm32f427x.o(RESET) refers to it.o(i.USART6_IRQHandler) for USART6_IRQHandler
    startup_stm32f427x.o(RESET) refers to it.o(i.UART7_IRQHandler) for UART7_IRQHandler
    startup_stm32f427x.o(RESET) refers to it.o(i.UART8_IRQHandler) for UART8_IRQHandler
    startup_stm32f427x.o(.text) refers (Special) to heapauxi.o(.text) for __use_two_region_memory
    startup_stm32f427x.o(.text) refers to system_stm32f4xx.o(i.SystemInit) for SystemInit
    startup_stm32f427x.o(.text) refers to __main.o(!!!main) for __main
    startup_stm32f427x.o(.text) refers to startup_stm32f427x.o(HEAP) for Heap_Mem
    startup_stm32f427x.o(.text) refers to startup_stm32f427x.o(STACK) for Stack_Mem
    event_groups.o(i.vEventGroupClearBitsCallback) refers to event_groups.o(i.xEventGroupClearBits) for xEventGroupClearBits
    event_groups.o(i.vEventGroupDelete) refers to tasks.o(i.vTaskSuspendAll) for vTaskSuspendAll
    event_groups.o(i.vEventGroupDelete) refers to tasks.o(i.xTaskRemoveFromUnorderedEventList) for xTaskRemoveFromUnorderedEventList
    event_groups.o(i.vEventGroupDelete) refers to heap_4.o(i.vPortFree) for vPortFree
    event_groups.o(i.vEventGroupDelete) refers to tasks.o(i.xTaskResumeAll) for xTaskResumeAll
    event_groups.o(i.vEventGroupSetBitsCallback) refers to event_groups.o(i.xEventGroupSetBits) for xEventGroupSetBits
    event_groups.o(i.xEventGroupClearBits) refers to port.o(i.vPortEnterCritical) for vPortEnterCritical
    event_groups.o(i.xEventGroupClearBits) refers to port.o(i.vPortExitCritical) for vPortExitCritical
    event_groups.o(i.xEventGroupCreate) refers to heap_4.o(i.pvPortMalloc) for pvPortMalloc
    event_groups.o(i.xEventGroupCreate) refers to list.o(i.vListInitialise) for vListInitialise
    event_groups.o(i.xEventGroupSetBits) refers to tasks.o(i.vTaskSuspendAll) for vTaskSuspendAll
    event_groups.o(i.xEventGroupSetBits) refers to tasks.o(i.xTaskRemoveFromUnorderedEventList) for xTaskRemoveFromUnorderedEventList
    event_groups.o(i.xEventGroupSetBits) refers to tasks.o(i.xTaskResumeAll) for xTaskResumeAll
    event_groups.o(i.xEventGroupSync) refers to tasks.o(i.xTaskGetSchedulerState) for xTaskGetSchedulerState
    event_groups.o(i.xEventGroupSync) refers to tasks.o(i.vTaskSuspendAll) for vTaskSuspendAll
    event_groups.o(i.xEventGroupSync) refers to event_groups.o(i.xEventGroupSetBits) for xEventGroupSetBits
    event_groups.o(i.xEventGroupSync) refers to tasks.o(i.vTaskPlaceOnUnorderedEventList) for vTaskPlaceOnUnorderedEventList
    event_groups.o(i.xEventGroupSync) refers to tasks.o(i.xTaskResumeAll) for xTaskResumeAll
    event_groups.o(i.xEventGroupSync) refers to tasks.o(i.uxTaskResetEventItemValue) for uxTaskResetEventItemValue
    event_groups.o(i.xEventGroupSync) refers to port.o(i.vPortEnterCritical) for vPortEnterCritical
    event_groups.o(i.xEventGroupSync) refers to port.o(i.vPortExitCritical) for vPortExitCritical
    event_groups.o(i.xEventGroupWaitBits) refers to tasks.o(i.xTaskGetSchedulerState) for xTaskGetSchedulerState
    event_groups.o(i.xEventGroupWaitBits) refers to tasks.o(i.vTaskSuspendAll) for vTaskSuspendAll
    event_groups.o(i.xEventGroupWaitBits) refers to event_groups.o(i.prvTestWaitCondition) for prvTestWaitCondition
    event_groups.o(i.xEventGroupWaitBits) refers to tasks.o(i.vTaskPlaceOnUnorderedEventList) for vTaskPlaceOnUnorderedEventList
    event_groups.o(i.xEventGroupWaitBits) refers to tasks.o(i.xTaskResumeAll) for xTaskResumeAll
    event_groups.o(i.xEventGroupWaitBits) refers to tasks.o(i.uxTaskResetEventItemValue) for uxTaskResetEventItemValue
    event_groups.o(i.xEventGroupWaitBits) refers to port.o(i.vPortEnterCritical) for vPortEnterCritical
    event_groups.o(i.xEventGroupWaitBits) refers to port.o(i.vPortExitCritical) for vPortExitCritical
    queue.o(i.pcQueueGetName) refers to queue.o(.bss) for xQueueRegistry
    queue.o(i.prvCopyDataFromQueue) refers to rt_memcpy_v6.o(.text) for __aeabi_memcpy
    queue.o(i.prvCopyDataToQueue) refers to tasks.o(i.xTaskPriorityDisinherit) for xTaskPriorityDisinherit
    queue.o(i.prvCopyDataToQueue) refers to rt_memcpy_v6.o(.text) for __aeabi_memcpy
    queue.o(i.prvInitialiseMutex) refers to queue.o(i.xQueueGenericSend) for xQueueGenericSend
    queue.o(i.prvInitialiseNewQueue) refers to queue.o(i.xQueueGenericReset) for xQueueGenericReset
    queue.o(i.prvIsQueueEmpty) refers to port.o(i.vPortEnterCritical) for vPortEnterCritical
    queue.o(i.prvIsQueueEmpty) refers to port.o(i.vPortExitCritical) for vPortExitCritical
    queue.o(i.prvIsQueueFull) refers to port.o(i.vPortEnterCritical) for vPortEnterCritical
    queue.o(i.prvIsQueueFull) refers to port.o(i.vPortExitCritical) for vPortExitCritical
    queue.o(i.prvUnlockQueue) refers to port.o(i.vPortEnterCritical) for vPortEnterCritical
    queue.o(i.prvUnlockQueue) refers to tasks.o(i.xTaskRemoveFromEventList) for xTaskRemoveFromEventList
    queue.o(i.prvUnlockQueue) refers to tasks.o(i.vTaskMissedYield) for vTaskMissedYield
    queue.o(i.prvUnlockQueue) refers to port.o(i.vPortExitCritical) for vPortExitCritical
    queue.o(i.uxQueueMessagesWaiting) refers to port.o(i.vPortEnterCritical) for vPortEnterCritical
    queue.o(i.uxQueueMessagesWaiting) refers to port.o(i.vPortExitCritical) for vPortExitCritical
    queue.o(i.uxQueueSpacesAvailable) refers to port.o(i.vPortEnterCritical) for vPortEnterCritical
    queue.o(i.uxQueueSpacesAvailable) refers to port.o(i.vPortExitCritical) for vPortExitCritical
    queue.o(i.vQueueAddToRegistry) refers to queue.o(.bss) for xQueueRegistry
    queue.o(i.vQueueDelete) refers to queue.o(i.vQueueUnregisterQueue) for vQueueUnregisterQueue
    queue.o(i.vQueueDelete) refers to heap_4.o(i.vPortFree) for vPortFree
    queue.o(i.vQueueUnregisterQueue) refers to queue.o(.bss) for xQueueRegistry
    queue.o(i.vQueueWaitForMessageRestricted) refers to port.o(i.vPortEnterCritical) for vPortEnterCritical
    queue.o(i.vQueueWaitForMessageRestricted) refers to port.o(i.vPortExitCritical) for vPortExitCritical
    queue.o(i.vQueueWaitForMessageRestricted) refers to tasks.o(i.vTaskPlaceOnEventListRestricted) for vTaskPlaceOnEventListRestricted
    queue.o(i.vQueueWaitForMessageRestricted) refers to queue.o(i.prvUnlockQueue) for prvUnlockQueue
    queue.o(i.xQueueCreateCountingSemaphore) refers to queue.o(i.xQueueGenericCreate) for xQueueGenericCreate
    queue.o(i.xQueueCreateMutex) refers to queue.o(i.xQueueGenericCreate) for xQueueGenericCreate
    queue.o(i.xQueueCreateMutex) refers to queue.o(i.prvInitialiseMutex) for prvInitialiseMutex
    queue.o(i.xQueueGenericCreate) refers to heap_4.o(i.pvPortMalloc) for pvPortMalloc
    queue.o(i.xQueueGenericCreate) refers to queue.o(i.prvInitialiseNewQueue) for prvInitialiseNewQueue
    queue.o(i.xQueueGenericReceive) refers to tasks.o(i.xTaskGetSchedulerState) for xTaskGetSchedulerState
    queue.o(i.xQueueGenericReceive) refers to port.o(i.vPortEnterCritical) for vPortEnterCritical
    queue.o(i.xQueueGenericReceive) refers to queue.o(i.prvCopyDataFromQueue) for prvCopyDataFromQueue
    queue.o(i.xQueueGenericReceive) refers to tasks.o(i.pvTaskIncrementMutexHeldCount) for pvTaskIncrementMutexHeldCount
    queue.o(i.xQueueGenericReceive) refers to tasks.o(i.xTaskRemoveFromEventList) for xTaskRemoveFromEventList
    queue.o(i.xQueueGenericReceive) refers to port.o(i.vPortExitCritical) for vPortExitCritical
    queue.o(i.xQueueGenericReceive) refers to tasks.o(i.vTaskSetTimeOutState) for vTaskSetTimeOutState
    queue.o(i.xQueueGenericReceive) refers to tasks.o(i.vTaskSuspendAll) for vTaskSuspendAll
    queue.o(i.xQueueGenericReceive) refers to tasks.o(i.xTaskCheckForTimeOut) for xTaskCheckForTimeOut
    queue.o(i.xQueueGenericReceive) refers to queue.o(i.prvIsQueueEmpty) for prvIsQueueEmpty
    queue.o(i.xQueueGenericReceive) refers to tasks.o(i.vTaskPriorityInherit) for vTaskPriorityInherit
    queue.o(i.xQueueGenericReceive) refers to tasks.o(i.vTaskPlaceOnEventList) for vTaskPlaceOnEventList
    queue.o(i.xQueueGenericReceive) refers to queue.o(i.prvUnlockQueue) for prvUnlockQueue
    queue.o(i.xQueueGenericReceive) refers to tasks.o(i.xTaskResumeAll) for xTaskResumeAll
    queue.o(i.xQueueGenericReset) refers to port.o(i.vPortEnterCritical) for vPortEnterCritical
    queue.o(i.xQueueGenericReset) refers to tasks.o(i.xTaskRemoveFromEventList) for xTaskRemoveFromEventList
    queue.o(i.xQueueGenericReset) refers to list.o(i.vListInitialise) for vListInitialise
    queue.o(i.xQueueGenericReset) refers to port.o(i.vPortExitCritical) for vPortExitCritical
    queue.o(i.xQueueGenericSend) refers to tasks.o(i.xTaskGetSchedulerState) for xTaskGetSchedulerState
    queue.o(i.xQueueGenericSend) refers to port.o(i.vPortEnterCritical) for vPortEnterCritical
    queue.o(i.xQueueGenericSend) refers to queue.o(i.prvCopyDataToQueue) for prvCopyDataToQueue
    queue.o(i.xQueueGenericSend) refers to tasks.o(i.xTaskRemoveFromEventList) for xTaskRemoveFromEventList
    queue.o(i.xQueueGenericSend) refers to port.o(i.vPortExitCritical) for vPortExitCritical
    queue.o(i.xQueueGenericSend) refers to tasks.o(i.vTaskSetTimeOutState) for vTaskSetTimeOutState
    queue.o(i.xQueueGenericSend) refers to tasks.o(i.vTaskSuspendAll) for vTaskSuspendAll
    queue.o(i.xQueueGenericSend) refers to tasks.o(i.xTaskCheckForTimeOut) for xTaskCheckForTimeOut
    queue.o(i.xQueueGenericSend) refers to queue.o(i.prvIsQueueFull) for prvIsQueueFull
    queue.o(i.xQueueGenericSend) refers to tasks.o(i.vTaskPlaceOnEventList) for vTaskPlaceOnEventList
    queue.o(i.xQueueGenericSend) refers to queue.o(i.prvUnlockQueue) for prvUnlockQueue
    queue.o(i.xQueueGenericSend) refers to tasks.o(i.xTaskResumeAll) for xTaskResumeAll
    queue.o(i.xQueueGenericSendFromISR) refers to port.o(i.vPortValidateInterruptPriority) for vPortValidateInterruptPriority
    queue.o(i.xQueueGenericSendFromISR) refers to queue.o(i.prvCopyDataToQueue) for prvCopyDataToQueue
    queue.o(i.xQueueGenericSendFromISR) refers to tasks.o(i.xTaskRemoveFromEventList) for xTaskRemoveFromEventList
    queue.o(i.xQueueGiveFromISR) refers to port.o(i.vPortValidateInterruptPriority) for vPortValidateInterruptPriority
    queue.o(i.xQueueGiveFromISR) refers to tasks.o(i.xTaskRemoveFromEventList) for xTaskRemoveFromEventList
    queue.o(i.xQueueGiveMutexRecursive) refers to tasks.o(i.xTaskGetCurrentTaskHandle) for xTaskGetCurrentTaskHandle
    queue.o(i.xQueueGiveMutexRecursive) refers to queue.o(i.xQueueGenericSend) for xQueueGenericSend
    queue.o(i.xQueuePeekFromISR) refers to port.o(i.vPortValidateInterruptPriority) for vPortValidateInterruptPriority
    queue.o(i.xQueuePeekFromISR) refers to queue.o(i.prvCopyDataFromQueue) for prvCopyDataFromQueue
    queue.o(i.xQueueReceiveFromISR) refers to port.o(i.vPortValidateInterruptPriority) for vPortValidateInterruptPriority
    queue.o(i.xQueueReceiveFromISR) refers to queue.o(i.prvCopyDataFromQueue) for prvCopyDataFromQueue
    queue.o(i.xQueueReceiveFromISR) refers to tasks.o(i.xTaskRemoveFromEventList) for xTaskRemoveFromEventList
    queue.o(i.xQueueTakeMutexRecursive) refers to tasks.o(i.xTaskGetCurrentTaskHandle) for xTaskGetCurrentTaskHandle
    queue.o(i.xQueueTakeMutexRecursive) refers to queue.o(i.xQueueGenericReceive) for xQueueGenericReceive
    tasks.o(i.pcTaskGetName) refers to tasks.o(.data) for pxCurrentTCB
    tasks.o(i.prvAddCurrentTaskToDelayedList) refers to list.o(i.uxListRemove) for uxListRemove
    tasks.o(i.prvAddCurrentTaskToDelayedList) refers to list.o(i.vListInsertEnd) for vListInsertEnd
    tasks.o(i.prvAddCurrentTaskToDelayedList) refers to list.o(i.vListInsert) for vListInsert
    tasks.o(i.prvAddCurrentTaskToDelayedList) refers to tasks.o(.data) for xTickCount
    tasks.o(i.prvAddCurrentTaskToDelayedList) refers to tasks.o(.bss) for xSuspendedTaskList
    tasks.o(i.prvAddNewTaskToReadyList) refers to port.o(i.vPortEnterCritical) for vPortEnterCritical
    tasks.o(i.prvAddNewTaskToReadyList) refers to tasks.o(i.prvInitialiseTaskLists) for prvInitialiseTaskLists
    tasks.o(i.prvAddNewTaskToReadyList) refers to list.o(i.vListInsertEnd) for vListInsertEnd
    tasks.o(i.prvAddNewTaskToReadyList) refers to port.o(i.vPortExitCritical) for vPortExitCritical
    tasks.o(i.prvAddNewTaskToReadyList) refers to tasks.o(.data) for uxCurrentNumberOfTasks
    tasks.o(i.prvAddNewTaskToReadyList) refers to tasks.o(.bss) for pxReadyTasksLists
    tasks.o(i.prvCheckTasksWaitingTermination) refers to tasks.o(i.vTaskSuspendAll) for vTaskSuspendAll
    tasks.o(i.prvCheckTasksWaitingTermination) refers to tasks.o(i.xTaskResumeAll) for xTaskResumeAll
    tasks.o(i.prvCheckTasksWaitingTermination) refers to port.o(i.vPortEnterCritical) for vPortEnterCritical
    tasks.o(i.prvCheckTasksWaitingTermination) refers to list.o(i.uxListRemove) for uxListRemove
    tasks.o(i.prvCheckTasksWaitingTermination) refers to port.o(i.vPortExitCritical) for vPortExitCritical
    tasks.o(i.prvCheckTasksWaitingTermination) refers to tasks.o(i.prvDeleteTCB) for prvDeleteTCB
    tasks.o(i.prvCheckTasksWaitingTermination) refers to tasks.o(.bss) for xTasksWaitingTermination
    tasks.o(i.prvCheckTasksWaitingTermination) refers to tasks.o(.data) for uxCurrentNumberOfTasks
    tasks.o(i.prvDeleteTCB) refers to heap_4.o(i.vPortFree) for vPortFree
    tasks.o(i.prvIdleTask) refers to tasks.o(i.prvCheckTasksWaitingTermination) for prvCheckTasksWaitingTermination
    tasks.o(i.prvIdleTask) refers to stm32f4xx_it.o(i.vApplicationIdleHook) for vApplicationIdleHook
    tasks.o(i.prvIdleTask) refers to tasks.o(.bss) for pxReadyTasksLists
    tasks.o(i.prvInitialiseNewTask) refers to aeabi_memset.o(.text) for __aeabi_memset
    tasks.o(i.prvInitialiseNewTask) refers to list.o(i.vListInitialiseItem) for vListInitialiseItem
    tasks.o(i.prvInitialiseNewTask) refers to port.o(i.pxPortInitialiseStack) for pxPortInitialiseStack
    tasks.o(i.prvInitialiseTaskLists) refers to list.o(i.vListInitialise) for vListInitialise
    tasks.o(i.prvInitialiseTaskLists) refers to tasks.o(.bss) for pxReadyTasksLists
    tasks.o(i.prvInitialiseTaskLists) refers to tasks.o(.data) for pxDelayedTaskList
    tasks.o(i.prvResetNextTaskUnblockTime) refers to tasks.o(.data) for pxDelayedTaskList
    tasks.o(i.prvTaskIsTaskSuspended) refers to tasks.o(.bss) for xSuspendedTaskList
    tasks.o(i.pvTaskIncrementMutexHeldCount) refers to tasks.o(.data) for pxCurrentTCB
    tasks.o(i.ulTaskNotifyTake) refers to port.o(i.vPortEnterCritical) for vPortEnterCritical
    tasks.o(i.ulTaskNotifyTake) refers to tasks.o(i.prvAddCurrentTaskToDelayedList) for prvAddCurrentTaskToDelayedList
    tasks.o(i.ulTaskNotifyTake) refers to port.o(i.vPortExitCritical) for vPortExitCritical
    tasks.o(i.ulTaskNotifyTake) refers to tasks.o(.data) for pxCurrentTCB
    tasks.o(i.uxTaskGetNumberOfTasks) refers to tasks.o(.data) for uxCurrentNumberOfTasks
    tasks.o(i.uxTaskPriorityGet) refers to port.o(i.vPortEnterCritical) for vPortEnterCritical
    tasks.o(i.uxTaskPriorityGet) refers to port.o(i.vPortExitCritical) for vPortExitCritical
    tasks.o(i.uxTaskPriorityGet) refers to tasks.o(.data) for pxCurrentTCB
    tasks.o(i.uxTaskPriorityGetFromISR) refers to port.o(i.vPortValidateInterruptPriority) for vPortValidateInterruptPriority
    tasks.o(i.uxTaskPriorityGetFromISR) refers to tasks.o(.data) for pxCurrentTCB
    tasks.o(i.uxTaskResetEventItemValue) refers to tasks.o(.data) for pxCurrentTCB
    tasks.o(i.vTaskDelay) refers to tasks.o(i.vTaskSuspendAll) for vTaskSuspendAll
    tasks.o(i.vTaskDelay) refers to tasks.o(i.prvAddCurrentTaskToDelayedList) for prvAddCurrentTaskToDelayedList
    tasks.o(i.vTaskDelay) refers to tasks.o(i.xTaskResumeAll) for xTaskResumeAll
    tasks.o(i.vTaskDelay) refers to tasks.o(.data) for uxSchedulerSuspended
    tasks.o(i.vTaskDelayUntil) refers to tasks.o(i.vTaskSuspendAll) for vTaskSuspendAll
    tasks.o(i.vTaskDelayUntil) refers to tasks.o(i.prvAddCurrentTaskToDelayedList) for prvAddCurrentTaskToDelayedList
    tasks.o(i.vTaskDelayUntil) refers to tasks.o(i.xTaskResumeAll) for xTaskResumeAll
    tasks.o(i.vTaskDelayUntil) refers to tasks.o(.data) for uxSchedulerSuspended
    tasks.o(i.vTaskDelete) refers to port.o(i.vPortEnterCritical) for vPortEnterCritical
    tasks.o(i.vTaskDelete) refers to list.o(i.uxListRemove) for uxListRemove
    tasks.o(i.vTaskDelete) refers to list.o(i.vListInsertEnd) for vListInsertEnd
    tasks.o(i.vTaskDelete) refers to tasks.o(i.prvDeleteTCB) for prvDeleteTCB
    tasks.o(i.vTaskDelete) refers to tasks.o(i.prvResetNextTaskUnblockTime) for prvResetNextTaskUnblockTime
    tasks.o(i.vTaskDelete) refers to port.o(i.vPortExitCritical) for vPortExitCritical
    tasks.o(i.vTaskDelete) refers to tasks.o(.data) for pxCurrentTCB
    tasks.o(i.vTaskDelete) refers to tasks.o(.bss) for pxReadyTasksLists
    tasks.o(i.vTaskEndScheduler) refers to port.o(i.vPortEndScheduler) for vPortEndScheduler
    tasks.o(i.vTaskEndScheduler) refers to tasks.o(.data) for xSchedulerRunning
    tasks.o(i.vTaskMissedYield) refers to tasks.o(.data) for xYieldPending
    tasks.o(i.vTaskNotifyGiveFromISR) refers to port.o(i.vPortValidateInterruptPriority) for vPortValidateInterruptPriority
    tasks.o(i.vTaskNotifyGiveFromISR) refers to list.o(i.uxListRemove) for uxListRemove
    tasks.o(i.vTaskNotifyGiveFromISR) refers to list.o(i.vListInsertEnd) for vListInsertEnd
    tasks.o(i.vTaskNotifyGiveFromISR) refers to tasks.o(.data) for uxSchedulerSuspended
    tasks.o(i.vTaskNotifyGiveFromISR) refers to tasks.o(.bss) for pxReadyTasksLists
    tasks.o(i.vTaskPlaceOnEventList) refers to list.o(i.vListInsert) for vListInsert
    tasks.o(i.vTaskPlaceOnEventList) refers to tasks.o(i.prvAddCurrentTaskToDelayedList) for prvAddCurrentTaskToDelayedList
    tasks.o(i.vTaskPlaceOnEventList) refers to tasks.o(.data) for pxCurrentTCB
    tasks.o(i.vTaskPlaceOnEventListRestricted) refers to list.o(i.vListInsertEnd) for vListInsertEnd
    tasks.o(i.vTaskPlaceOnEventListRestricted) refers to tasks.o(i.prvAddCurrentTaskToDelayedList) for prvAddCurrentTaskToDelayedList
    tasks.o(i.vTaskPlaceOnEventListRestricted) refers to tasks.o(.data) for pxCurrentTCB
    tasks.o(i.vTaskPlaceOnUnorderedEventList) refers to list.o(i.vListInsertEnd) for vListInsertEnd
    tasks.o(i.vTaskPlaceOnUnorderedEventList) refers to tasks.o(i.prvAddCurrentTaskToDelayedList) for prvAddCurrentTaskToDelayedList
    tasks.o(i.vTaskPlaceOnUnorderedEventList) refers to tasks.o(.data) for uxSchedulerSuspended
    tasks.o(i.vTaskPriorityInherit) refers to list.o(i.uxListRemove) for uxListRemove
    tasks.o(i.vTaskPriorityInherit) refers to list.o(i.vListInsertEnd) for vListInsertEnd
    tasks.o(i.vTaskPriorityInherit) refers to tasks.o(.data) for pxCurrentTCB
    tasks.o(i.vTaskPriorityInherit) refers to tasks.o(.bss) for pxReadyTasksLists
    tasks.o(i.vTaskPrioritySet) refers to port.o(i.vPortEnterCritical) for vPortEnterCritical
    tasks.o(i.vTaskPrioritySet) refers to list.o(i.uxListRemove) for uxListRemove
    tasks.o(i.vTaskPrioritySet) refers to list.o(i.vListInsertEnd) for vListInsertEnd
    tasks.o(i.vTaskPrioritySet) refers to port.o(i.vPortExitCritical) for vPortExitCritical
    tasks.o(i.vTaskPrioritySet) refers to tasks.o(.data) for pxCurrentTCB
    tasks.o(i.vTaskPrioritySet) refers to tasks.o(.bss) for pxReadyTasksLists
    tasks.o(i.vTaskResume) refers to port.o(i.vPortEnterCritical) for vPortEnterCritical
    tasks.o(i.vTaskResume) refers to tasks.o(i.prvTaskIsTaskSuspended) for prvTaskIsTaskSuspended
    tasks.o(i.vTaskResume) refers to list.o(i.uxListRemove) for uxListRemove
    tasks.o(i.vTaskResume) refers to list.o(i.vListInsertEnd) for vListInsertEnd
    tasks.o(i.vTaskResume) refers to port.o(i.vPortExitCritical) for vPortExitCritical
    tasks.o(i.vTaskResume) refers to tasks.o(.data) for pxCurrentTCB
    tasks.o(i.vTaskResume) refers to tasks.o(.bss) for pxReadyTasksLists
    tasks.o(i.vTaskSetTimeOutState) refers to tasks.o(.data) for xNumOfOverflows
    tasks.o(i.vTaskStartScheduler) refers to tasks.o(i.xTaskCreate) for xTaskCreate
    tasks.o(i.vTaskStartScheduler) refers to timers.o(i.xTimerCreateTimerTask) for xTimerCreateTimerTask
    tasks.o(i.vTaskStartScheduler) refers to port.o(i.xPortStartScheduler) for xPortStartScheduler
    tasks.o(i.vTaskStartScheduler) refers to tasks.o(.data) for xIdleTaskHandle
    tasks.o(i.vTaskStartScheduler) refers to tasks.o(i.prvIdleTask) for prvIdleTask
    tasks.o(i.vTaskSuspend) refers to port.o(i.vPortEnterCritical) for vPortEnterCritical
    tasks.o(i.vTaskSuspend) refers to list.o(i.uxListRemove) for uxListRemove
    tasks.o(i.vTaskSuspend) refers to list.o(i.vListInsertEnd) for vListInsertEnd
    tasks.o(i.vTaskSuspend) refers to port.o(i.vPortExitCritical) for vPortExitCritical
    tasks.o(i.vTaskSuspend) refers to tasks.o(i.prvResetNextTaskUnblockTime) for prvResetNextTaskUnblockTime
    tasks.o(i.vTaskSuspend) refers to tasks.o(i.vTaskSwitchContext) for vTaskSwitchContext
    tasks.o(i.vTaskSuspend) refers to tasks.o(.data) for pxCurrentTCB
    tasks.o(i.vTaskSuspend) refers to tasks.o(.bss) for pxReadyTasksLists
    tasks.o(i.vTaskSuspendAll) refers to tasks.o(.data) for uxSchedulerSuspended
    tasks.o(i.vTaskSwitchContext) refers to stm32f4xx_it.o(i.vApplicationStackOverflowHook) for vApplicationStackOverflowHook
    tasks.o(i.vTaskSwitchContext) refers to tasks.o(.data) for uxSchedulerSuspended
    tasks.o(i.vTaskSwitchContext) refers to tasks.o(.bss) for pxReadyTasksLists
    tasks.o(i.xTaskCheckForTimeOut) refers to port.o(i.vPortEnterCritical) for vPortEnterCritical
    tasks.o(i.xTaskCheckForTimeOut) refers to tasks.o(i.vTaskSetTimeOutState) for vTaskSetTimeOutState
    tasks.o(i.xTaskCheckForTimeOut) refers to port.o(i.vPortExitCritical) for vPortExitCritical
    tasks.o(i.xTaskCheckForTimeOut) refers to tasks.o(.data) for xTickCount
    tasks.o(i.xTaskCreate) refers to heap_4.o(i.pvPortMalloc) for pvPortMalloc
    tasks.o(i.xTaskCreate) refers to heap_4.o(i.vPortFree) for vPortFree
    tasks.o(i.xTaskCreate) refers to tasks.o(i.prvInitialiseNewTask) for prvInitialiseNewTask
    tasks.o(i.xTaskCreate) refers to tasks.o(i.prvAddNewTaskToReadyList) for prvAddNewTaskToReadyList
    tasks.o(i.xTaskGenericNotify) refers to port.o(i.vPortEnterCritical) for vPortEnterCritical
    tasks.o(i.xTaskGenericNotify) refers to list.o(i.uxListRemove) for uxListRemove
    tasks.o(i.xTaskGenericNotify) refers to list.o(i.vListInsertEnd) for vListInsertEnd
    tasks.o(i.xTaskGenericNotify) refers to port.o(i.vPortExitCritical) for vPortExitCritical
    tasks.o(i.xTaskGenericNotify) refers to tasks.o(.data) for uxTopReadyPriority
    tasks.o(i.xTaskGenericNotify) refers to tasks.o(.bss) for pxReadyTasksLists
    tasks.o(i.xTaskGenericNotifyFromISR) refers to port.o(i.vPortValidateInterruptPriority) for vPortValidateInterruptPriority
    tasks.o(i.xTaskGenericNotifyFromISR) refers to list.o(i.uxListRemove) for uxListRemove
    tasks.o(i.xTaskGenericNotifyFromISR) refers to list.o(i.vListInsertEnd) for vListInsertEnd
    tasks.o(i.xTaskGenericNotifyFromISR) refers to tasks.o(.data) for uxSchedulerSuspended
    tasks.o(i.xTaskGenericNotifyFromISR) refers to tasks.o(.bss) for pxReadyTasksLists
    tasks.o(i.xTaskGetCurrentTaskHandle) refers to tasks.o(.data) for pxCurrentTCB
    tasks.o(i.xTaskGetSchedulerState) refers to tasks.o(.data) for xSchedulerRunning
    tasks.o(i.xTaskGetTickCount) refers to tasks.o(.data) for xTickCount
    tasks.o(i.xTaskGetTickCountFromISR) refers to port.o(i.vPortValidateInterruptPriority) for vPortValidateInterruptPriority
    tasks.o(i.xTaskGetTickCountFromISR) refers to tasks.o(.data) for xTickCount
    tasks.o(i.xTaskIncrementTick) refers to tasks.o(i.prvResetNextTaskUnblockTime) for prvResetNextTaskUnblockTime
    tasks.o(i.xTaskIncrementTick) refers to list.o(i.uxListRemove) for uxListRemove
    tasks.o(i.xTaskIncrementTick) refers to list.o(i.vListInsertEnd) for vListInsertEnd
    tasks.o(i.xTaskIncrementTick) refers to stm32f4xx_it.o(i.vApplicationTickHook) for vApplicationTickHook
    tasks.o(i.xTaskIncrementTick) refers to tasks.o(.data) for uxSchedulerSuspended
    tasks.o(i.xTaskIncrementTick) refers to tasks.o(.bss) for pxReadyTasksLists
    tasks.o(i.xTaskNotifyStateClear) refers to port.o(i.vPortEnterCritical) for vPortEnterCritical
    tasks.o(i.xTaskNotifyStateClear) refers to port.o(i.vPortExitCritical) for vPortExitCritical
    tasks.o(i.xTaskNotifyStateClear) refers to tasks.o(.data) for pxCurrentTCB
    tasks.o(i.xTaskNotifyWait) refers to port.o(i.vPortEnterCritical) for vPortEnterCritical
    tasks.o(i.xTaskNotifyWait) refers to tasks.o(i.prvAddCurrentTaskToDelayedList) for prvAddCurrentTaskToDelayedList
    tasks.o(i.xTaskNotifyWait) refers to port.o(i.vPortExitCritical) for vPortExitCritical
    tasks.o(i.xTaskNotifyWait) refers to tasks.o(.data) for pxCurrentTCB
    tasks.o(i.xTaskPriorityDisinherit) refers to list.o(i.uxListRemove) for uxListRemove
    tasks.o(i.xTaskPriorityDisinherit) refers to list.o(i.vListInsertEnd) for vListInsertEnd
    tasks.o(i.xTaskPriorityDisinherit) refers to tasks.o(.data) for pxCurrentTCB
    tasks.o(i.xTaskPriorityDisinherit) refers to tasks.o(.bss) for pxReadyTasksLists
    tasks.o(i.xTaskRemoveFromEventList) refers to list.o(i.uxListRemove) for uxListRemove
    tasks.o(i.xTaskRemoveFromEventList) refers to list.o(i.vListInsertEnd) for vListInsertEnd
    tasks.o(i.xTaskRemoveFromEventList) refers to tasks.o(.data) for uxSchedulerSuspended
    tasks.o(i.xTaskRemoveFromEventList) refers to tasks.o(.bss) for pxReadyTasksLists
    tasks.o(i.xTaskRemoveFromUnorderedEventList) refers to list.o(i.uxListRemove) for uxListRemove
    tasks.o(i.xTaskRemoveFromUnorderedEventList) refers to list.o(i.vListInsertEnd) for vListInsertEnd
    tasks.o(i.xTaskRemoveFromUnorderedEventList) refers to tasks.o(.data) for uxSchedulerSuspended
    tasks.o(i.xTaskRemoveFromUnorderedEventList) refers to tasks.o(.bss) for pxReadyTasksLists
    tasks.o(i.xTaskResumeAll) refers to port.o(i.vPortEnterCritical) for vPortEnterCritical
    tasks.o(i.xTaskResumeAll) refers to list.o(i.uxListRemove) for uxListRemove
    tasks.o(i.xTaskResumeAll) refers to list.o(i.vListInsertEnd) for vListInsertEnd
    tasks.o(i.xTaskResumeAll) refers to tasks.o(i.prvResetNextTaskUnblockTime) for prvResetNextTaskUnblockTime
    tasks.o(i.xTaskResumeAll) refers to tasks.o(i.xTaskIncrementTick) for xTaskIncrementTick
    tasks.o(i.xTaskResumeAll) refers to port.o(i.vPortExitCritical) for vPortExitCritical
    tasks.o(i.xTaskResumeAll) refers to tasks.o(.data) for uxSchedulerSuspended
    tasks.o(i.xTaskResumeAll) refers to tasks.o(.bss) for xPendingReadyList
    tasks.o(i.xTaskResumeFromISR) refers to port.o(i.vPortValidateInterruptPriority) for vPortValidateInterruptPriority
    tasks.o(i.xTaskResumeFromISR) refers to tasks.o(i.prvTaskIsTaskSuspended) for prvTaskIsTaskSuspended
    tasks.o(i.xTaskResumeFromISR) refers to list.o(i.uxListRemove) for uxListRemove
    tasks.o(i.xTaskResumeFromISR) refers to list.o(i.vListInsertEnd) for vListInsertEnd
    tasks.o(i.xTaskResumeFromISR) refers to tasks.o(.data) for uxSchedulerSuspended
    tasks.o(i.xTaskResumeFromISR) refers to tasks.o(.bss) for pxReadyTasksLists
    timers.o(i.prvCheckForValidListAndQueue) refers to port.o(i.vPortEnterCritical) for vPortEnterCritical
    timers.o(i.prvCheckForValidListAndQueue) refers to list.o(i.vListInitialise) for vListInitialise
    timers.o(i.prvCheckForValidListAndQueue) refers to queue.o(i.xQueueGenericCreate) for xQueueGenericCreate
    timers.o(i.prvCheckForValidListAndQueue) refers to queue.o(i.vQueueAddToRegistry) for vQueueAddToRegistry
    timers.o(i.prvCheckForValidListAndQueue) refers to port.o(i.vPortExitCritical) for vPortExitCritical
    timers.o(i.prvCheckForValidListAndQueue) refers to timers.o(.data) for xTimerQueue
    timers.o(i.prvCheckForValidListAndQueue) refers to timers.o(.bss) for xActiveTimerList1
    timers.o(i.prvGetNextExpireTime) refers to timers.o(.data) for pxCurrentTimerList
    timers.o(i.prvInitialiseNewTimer) refers to timers.o(i.prvCheckForValidListAndQueue) for prvCheckForValidListAndQueue
    timers.o(i.prvInitialiseNewTimer) refers to list.o(i.vListInitialiseItem) for vListInitialiseItem
    timers.o(i.prvInsertTimerInActiveList) refers to list.o(i.vListInsert) for vListInsert
    timers.o(i.prvInsertTimerInActiveList) refers to timers.o(.data) for pxOverflowTimerList
    timers.o(i.prvProcessExpiredTimer) refers to list.o(i.uxListRemove) for uxListRemove
    timers.o(i.prvProcessExpiredTimer) refers to timers.o(i.prvInsertTimerInActiveList) for prvInsertTimerInActiveList
    timers.o(i.prvProcessExpiredTimer) refers to timers.o(i.xTimerGenericCommand) for xTimerGenericCommand
    timers.o(i.prvProcessExpiredTimer) refers to timers.o(.data) for pxCurrentTimerList
    timers.o(i.prvProcessReceivedCommands) refers to list.o(i.uxListRemove) for uxListRemove
    timers.o(i.prvProcessReceivedCommands) refers to timers.o(i.prvSampleTimeNow) for prvSampleTimeNow
    timers.o(i.prvProcessReceivedCommands) refers to timers.o(i.prvInsertTimerInActiveList) for prvInsertTimerInActiveList
    timers.o(i.prvProcessReceivedCommands) refers to timers.o(i.xTimerGenericCommand) for xTimerGenericCommand
    timers.o(i.prvProcessReceivedCommands) refers to heap_4.o(i.vPortFree) for vPortFree
    timers.o(i.prvProcessReceivedCommands) refers to queue.o(i.xQueueGenericReceive) for xQueueGenericReceive
    timers.o(i.prvProcessReceivedCommands) refers to timers.o(.data) for xTimerQueue
    timers.o(i.prvProcessTimerOrBlockTask) refers to tasks.o(i.vTaskSuspendAll) for vTaskSuspendAll
    timers.o(i.prvProcessTimerOrBlockTask) refers to timers.o(i.prvSampleTimeNow) for prvSampleTimeNow
    timers.o(i.prvProcessTimerOrBlockTask) refers to tasks.o(i.xTaskResumeAll) for xTaskResumeAll
    timers.o(i.prvProcessTimerOrBlockTask) refers to timers.o(i.prvProcessExpiredTimer) for prvProcessExpiredTimer
    timers.o(i.prvProcessTimerOrBlockTask) refers to queue.o(i.vQueueWaitForMessageRestricted) for vQueueWaitForMessageRestricted
    timers.o(i.prvProcessTimerOrBlockTask) refers to timers.o(.data) for pxOverflowTimerList
    timers.o(i.prvSampleTimeNow) refers to tasks.o(i.xTaskGetTickCount) for xTaskGetTickCount
    timers.o(i.prvSampleTimeNow) refers to timers.o(i.prvSwitchTimerLists) for prvSwitchTimerLists
    timers.o(i.prvSampleTimeNow) refers to timers.o(.data) for xLastTime
    timers.o(i.prvSwitchTimerLists) refers to list.o(i.uxListRemove) for uxListRemove
    timers.o(i.prvSwitchTimerLists) refers to list.o(i.vListInsert) for vListInsert
    timers.o(i.prvSwitchTimerLists) refers to timers.o(i.xTimerGenericCommand) for xTimerGenericCommand
    timers.o(i.prvSwitchTimerLists) refers to timers.o(.data) for pxCurrentTimerList
    timers.o(i.prvTimerTask) refers to timers.o(i.prvGetNextExpireTime) for prvGetNextExpireTime
    timers.o(i.prvTimerTask) refers to timers.o(i.prvProcessTimerOrBlockTask) for prvProcessTimerOrBlockTask
    timers.o(i.prvTimerTask) refers to timers.o(i.prvProcessReceivedCommands) for prvProcessReceivedCommands
    timers.o(i.pvTimerGetTimerID) refers to port.o(i.vPortEnterCritical) for vPortEnterCritical
    timers.o(i.pvTimerGetTimerID) refers to port.o(i.vPortExitCritical) for vPortExitCritical
    timers.o(i.vTimerSetTimerID) refers to port.o(i.vPortEnterCritical) for vPortEnterCritical
    timers.o(i.vTimerSetTimerID) refers to port.o(i.vPortExitCritical) for vPortExitCritical
    timers.o(i.xTimerCreate) refers to heap_4.o(i.pvPortMalloc) for pvPortMalloc
    timers.o(i.xTimerCreate) refers to timers.o(i.prvInitialiseNewTimer) for prvInitialiseNewTimer
    timers.o(i.xTimerCreateTimerTask) refers to timers.o(i.prvCheckForValidListAndQueue) for prvCheckForValidListAndQueue
    timers.o(i.xTimerCreateTimerTask) refers to tasks.o(i.xTaskCreate) for xTaskCreate
    timers.o(i.xTimerCreateTimerTask) refers to timers.o(.data) for xTimerQueue
    timers.o(i.xTimerCreateTimerTask) refers to timers.o(i.prvTimerTask) for prvTimerTask
    timers.o(i.xTimerGenericCommand) refers to tasks.o(i.xTaskGetSchedulerState) for xTaskGetSchedulerState
    timers.o(i.xTimerGenericCommand) refers to queue.o(i.xQueueGenericSend) for xQueueGenericSend
    timers.o(i.xTimerGenericCommand) refers to queue.o(i.xQueueGenericSendFromISR) for xQueueGenericSendFromISR
    timers.o(i.xTimerGenericCommand) refers to timers.o(.data) for xTimerQueue
    timers.o(i.xTimerGetTimerDaemonTaskHandle) refers to timers.o(.data) for xTimerTaskHandle
    timers.o(i.xTimerIsTimerActive) refers to port.o(i.vPortEnterCritical) for vPortEnterCritical
    timers.o(i.xTimerIsTimerActive) refers to port.o(i.vPortExitCritical) for vPortExitCritical
    heap_4.o(i.prvHeapInit) refers to heap_4.o(.bss) for ucHeap
    heap_4.o(i.prvHeapInit) refers to heap_4.o(.data) for xStart
    heap_4.o(i.prvInsertBlockIntoFreeList) refers to heap_4.o(.data) for xStart
    heap_4.o(i.pvPortMalloc) refers to tasks.o(i.vTaskSuspendAll) for vTaskSuspendAll
    heap_4.o(i.pvPortMalloc) refers to heap_4.o(i.prvHeapInit) for prvHeapInit
    heap_4.o(i.pvPortMalloc) refers to heap_4.o(i.prvInsertBlockIntoFreeList) for prvInsertBlockIntoFreeList
    heap_4.o(i.pvPortMalloc) refers to tasks.o(i.xTaskResumeAll) for xTaskResumeAll
    heap_4.o(i.pvPortMalloc) refers to stm32f4xx_it.o(i.vApplicationMallocFailedHook) for vApplicationMallocFailedHook
    heap_4.o(i.pvPortMalloc) refers to heap_4.o(.data) for pxEnd
    heap_4.o(i.vPortFree) refers to tasks.o(i.vTaskSuspendAll) for vTaskSuspendAll
    heap_4.o(i.vPortFree) refers to heap_4.o(i.prvInsertBlockIntoFreeList) for prvInsertBlockIntoFreeList
    heap_4.o(i.vPortFree) refers to tasks.o(i.xTaskResumeAll) for xTaskResumeAll
    heap_4.o(i.vPortFree) refers to heap_4.o(.data) for xBlockAllocatedBit
    heap_4.o(i.xPortGetFreeHeapSize) refers to heap_4.o(.data) for xFreeBytesRemaining
    heap_4.o(i.xPortGetMinimumEverFreeHeapSize) refers to heap_4.o(.data) for xMinimumEverFreeBytesRemaining
    port.o(.emb_text) refers to tasks.o(i.vTaskSwitchContext) for vTaskSwitchContext
    port.o(.emb_text) refers to tasks.o(.data) for pxCurrentTCB
    port.o(i.SysTick_Handler) refers to tasks.o(i.xTaskIncrementTick) for xTaskIncrementTick
    port.o(i.prvTaskExitError) refers to port.o(.data) for uxCriticalNesting
    port.o(i.pxPortInitialiseStack) refers to port.o(i.prvTaskExitError) for prvTaskExitError
    port.o(i.vPortEndScheduler) refers to port.o(.data) for uxCriticalNesting
    port.o(i.vPortEnterCritical) refers to port.o(.data) for uxCriticalNesting
    port.o(i.vPortExitCritical) refers to port.o(.data) for uxCriticalNesting
    port.o(i.vPortValidateInterruptPriority) refers to port.o(.emb_text) for vPortGetIPSR
    port.o(i.vPortValidateInterruptPriority) refers to port.o(.data) for ucMaxSysCallPriority
    port.o(i.xPortStartScheduler) refers to port.o(i.vPortSetupTimerInterrupt) for vPortSetupTimerInterrupt
    port.o(i.xPortStartScheduler) refers to port.o(.emb_text) for __asm___6_port_c_39a90d8d__prvEnableVFP
    port.o(i.xPortStartScheduler) refers to port.o(.data) for ucMaxSysCallPriority
    __2printf.o(.text) refers to _printf_char_file.o(.text) for _printf_char_file
    __2printf.o(.text) refers to stdio_streams.o(.bss) for __stdout
    noretval__2printf.o(.text) refers to _printf_char_file.o(.text) for _printf_char_file
    noretval__2printf.o(.text) refers to stdio_streams.o(.bss) for __stdout
    __printf.o(.text) refers to _printf_percent.o(.ARM.Collect$$_printf_percent$$00000000) for _printf_percent
    _printf_hex_ll.o(.text) refers to _printf_intcommon.o(.text) for _printf_int_common
    _printf_hex_ll.o(.text) refers to _printf_hex_ll.o(.constdata) for .constdata
    _printf_hex_int.o(.text) refers to _printf_intcommon.o(.text) for _printf_int_common
    _printf_hex_int.o(.text) refers to _printf_hex_int.o(.constdata) for .constdata
    _printf_hex_int_ll.o(.text) refers to _printf_intcommon.o(.text) for _printf_int_common
    _printf_hex_int_ll.o(.text) refers to _printf_hex_int_ll.o(.constdata) for .constdata
    _printf_hex_ptr.o(.text) refers to _printf_intcommon.o(.text) for _printf_int_common
    _printf_hex_ptr.o(.text) refers to _printf_hex_ptr.o(.constdata) for .constdata
    _printf_hex_int_ptr.o(.text) refers to _printf_intcommon.o(.text) for _printf_int_common
    _printf_hex_int_ptr.o(.text) refers to _printf_hex_int_ptr.o(.constdata) for .constdata
    _printf_hex_ll_ptr.o(.text) refers to _printf_intcommon.o(.text) for _printf_int_common
    _printf_hex_ll_ptr.o(.text) refers to _printf_hex_ll_ptr.o(.constdata) for .constdata
    _printf_hex_int_ll_ptr.o(.text) refers to _printf_intcommon.o(.text) for _printf_int_common
    _printf_hex_int_ll_ptr.o(.text) refers to _printf_hex_int_ll_ptr.o(.constdata) for .constdata
    __printf_flags.o(.text) refers to _printf_percent.o(.ARM.Collect$$_printf_percent$$00000000) for _printf_percent
    __printf_flags.o(.text) refers to __printf_flags.o(.constdata) for .constdata
    __printf_ss.o(.text) refers to _printf_percent.o(.ARM.Collect$$_printf_percent$$00000000) for _printf_percent
    __printf_flags_ss.o(.text) refers to _printf_percent.o(.ARM.Collect$$_printf_percent$$00000000) for _printf_percent
    __printf_flags_ss.o(.text) refers to __printf_flags_ss.o(.constdata) for .constdata
    __printf_wp.o(.text) refers to __printf_wp.o(i._is_digit) for _is_digit
    __printf_wp.o(.text) refers to _printf_percent.o(.ARM.Collect$$_printf_percent$$00000000) for _printf_percent
    __printf_flags_wp.o(.text) refers to __printf_wp.o(i._is_digit) for _is_digit
    __printf_flags_wp.o(.text) refers to _printf_percent.o(.ARM.Collect$$_printf_percent$$00000000) for _printf_percent
    __printf_flags_wp.o(.text) refers to __printf_flags_wp.o(.constdata) for .constdata
    __printf_ss_wp.o(.text) refers to __printf_wp.o(i._is_digit) for _is_digit
    __printf_ss_wp.o(.text) refers to _printf_percent.o(.ARM.Collect$$_printf_percent$$00000000) for _printf_percent
    __printf_flags_ss_wp.o(.text) refers to __printf_wp.o(i._is_digit) for _is_digit
    __printf_flags_ss_wp.o(.text) refers to _printf_percent.o(.ARM.Collect$$_printf_percent$$00000000) for _printf_percent
    __printf_flags_ss_wp.o(.text) refers to __printf_flags_ss_wp.o(.constdata) for .constdata
    _printf_x.o(.ARM.Collect$$_printf_percent$$0000000C) refers (Weak) to _printf_hex_int.o(.text) for _printf_int_hex
    _printf_percent.o(.ARM.Collect$$_printf_percent$$00000000) refers (Special) to _printf_percent_end.o(.ARM.Collect$$_printf_percent$$00000017) for _printf_percent_end
    rt_memcpy_v6.o(.text) refers to rt_memcpy_w.o(.text) for __aeabi_memcpy4
    aeabi_memset.o(.text) refers to rt_memclr.o(.text) for _memset
    __main.o(!!!main) refers to __rtentry.o(.ARM.Collect$$rtentry$$00000000) for __rt_entry
    d2f.o(x$fpl$d2f) refers (Special) to usenofp.o(x$fpl$usenofp) for __I$use$fp
    d2f.o(x$fpl$d2f) refers to fretinf.o(x$fpl$fretinf) for __fpl_fretinf
    d2f.o(x$fpl$d2f) refers to dnaninf.o(x$fpl$dnaninf) for __fpl_dnaninf
    daddsub_clz.o(x$fpl$dadd) refers (Special) to usenofp.o(x$fpl$usenofp) for __I$use$fp
    daddsub_clz.o(x$fpl$dadd) refers to daddsub_clz.o(x$fpl$dsub) for _dsub1
    daddsub_clz.o(x$fpl$dadd) refers to dretinf.o(x$fpl$dretinf) for __fpl_dretinf
    daddsub_clz.o(x$fpl$dadd) refers to dnaninf.o(x$fpl$dnaninf) for __fpl_dnaninf
    daddsub_clz.o(x$fpl$drsb) refers (Special) to usenofp.o(x$fpl$usenofp) for __I$use$fp
    daddsub_clz.o(x$fpl$drsb) refers to daddsub_clz.o(x$fpl$dadd) for _dadd1
    daddsub_clz.o(x$fpl$drsb) refers to daddsub_clz.o(x$fpl$dsub) for _dsub1
    daddsub_clz.o(x$fpl$dsub) refers (Special) to usenofp.o(x$fpl$usenofp) for __I$use$fp
    daddsub_clz.o(x$fpl$dsub) refers to daddsub_clz.o(x$fpl$dadd) for _dadd1
    daddsub_clz.o(x$fpl$dsub) refers to dnaninf.o(x$fpl$dnaninf) for __fpl_dnaninf
    f2d.o(x$fpl$f2d) refers (Special) to usenofp.o(x$fpl$usenofp) for __I$use$fp
    f2d.o(x$fpl$f2d) refers to fnaninf.o(x$fpl$fnaninf) for __fpl_fnaninf
    f2d.o(x$fpl$f2d) refers to dretinf.o(x$fpl$dretinf) for __fpl_dretinf
    atan.o(i.__hardfp_atan) refers (Special) to usenofp.o(x$fpl$usenofp) for __I$use$fp
    atan.o(i.__hardfp_atan) refers to dunder.o(i.__mathlib_dbl_infnan) for __mathlib_dbl_infnan
    atan.o(i.__hardfp_atan) refers to fpclassify.o(i.__ARM_fpclassify) for __ARM_fpclassify
    atan.o(i.__hardfp_atan) refers to dunder.o(i.__mathlib_dbl_underflow) for __mathlib_dbl_underflow
    atan.o(i.__hardfp_atan) refers to fabs.o(i.fabs) for fabs
    atan.o(i.__hardfp_atan) refers to daddsub_clz.o(x$fpl$dadd) for __aeabi_dadd
    atan.o(i.__hardfp_atan) refers to dmul.o(x$fpl$dmul) for __aeabi_dmul
    atan.o(i.__hardfp_atan) refers to daddsub_clz.o(x$fpl$dsub) for __aeabi_dsub
    atan.o(i.__hardfp_atan) refers to ddiv.o(x$fpl$ddiv) for __aeabi_ddiv
    atan.o(i.__hardfp_atan) refers to poly.o(i.__kernel_poly) for __kernel_poly
    atan.o(i.__hardfp_atan) refers to daddsub_clz.o(x$fpl$drsb) for __aeabi_drsub
    atan.o(i.__hardfp_atan) refers to basic.o(x$fpl$basic) for __aeabi_dneg
    atan.o(i.__hardfp_atan) refers to atan.o(.constdata) for .constdata
    atan.o(i.__softfp_atan) refers (Special) to usenofp.o(x$fpl$usenofp) for __I$use$fp
    atan.o(i.__softfp_atan) refers to atan.o(i.__hardfp_atan) for __hardfp_atan
    atan.o(i.atan) refers (Special) to usenofp.o(x$fpl$usenofp) for __I$use$fp
    atan.o(i.atan) refers to atan.o(i.__hardfp_atan) for __hardfp_atan
    atan.o(.constdata) refers (Special) to usenofp.o(x$fpl$usenofp) for __I$use$fp
    atan_x.o(i.____hardfp_atan$lsc) refers (Special) to usenofp.o(x$fpl$usenofp) for __I$use$fp
    atan_x.o(i.____hardfp_atan$lsc) refers to dunder.o(i.__mathlib_dbl_infnan) for __mathlib_dbl_infnan
    atan_x.o(i.____hardfp_atan$lsc) refers to fabs.o(i.fabs) for fabs
    atan_x.o(i.____hardfp_atan$lsc) refers to daddsub_clz.o(x$fpl$dadd) for __aeabi_dadd
    atan_x.o(i.____hardfp_atan$lsc) refers to dmul.o(x$fpl$dmul) for __aeabi_dmul
    atan_x.o(i.____hardfp_atan$lsc) refers to daddsub_clz.o(x$fpl$dsub) for __aeabi_dsub
    atan_x.o(i.____hardfp_atan$lsc) refers to ddiv.o(x$fpl$ddiv) for __aeabi_ddiv
    atan_x.o(i.____hardfp_atan$lsc) refers to poly.o(i.__kernel_poly) for __kernel_poly
    atan_x.o(i.____hardfp_atan$lsc) refers to daddsub_clz.o(x$fpl$drsb) for __aeabi_drsub
    atan_x.o(i.____hardfp_atan$lsc) refers to basic.o(x$fpl$basic) for __aeabi_dneg
    atan_x.o(i.____hardfp_atan$lsc) refers to atan_x.o(.constdata) for .constdata
    atan_x.o(i.____softfp_atan$lsc) refers (Special) to usenofp.o(x$fpl$usenofp) for __I$use$fp
    atan_x.o(i.____softfp_atan$lsc) refers to atan_x.o(i.____hardfp_atan$lsc) for ____hardfp_atan$lsc
    atan_x.o(i.__atan$lsc) refers (Special) to usenofp.o(x$fpl$usenofp) for __I$use$fp
    atan_x.o(i.__atan$lsc) refers to atan_x.o(i.____hardfp_atan$lsc) for ____hardfp_atan$lsc
    atan_x.o(.constdata) refers (Special) to usenofp.o(x$fpl$usenofp) for __I$use$fp
    atan2.o(i.__hardfp_atan2) refers (Special) to usenofp.o(x$fpl$usenofp) for __I$use$fp
    atan2.o(i.__hardfp_atan2) refers to dunder.o(i.__mathlib_dbl_infnan2) for __mathlib_dbl_infnan2
    atan2.o(i.__hardfp_atan2) refers to atan.o(i.atan) for atan
    atan2.o(i.__hardfp_atan2) refers to basic.o(x$fpl$basic) for __aeabi_dneg
    atan2.o(i.__hardfp_atan2) refers to ddiv.o(x$fpl$ddiv) for __aeabi_ddiv
    atan2.o(i.__hardfp_atan2) refers to fabs.o(i.fabs) for fabs
    atan2.o(i.__hardfp_atan2) refers to daddsub_clz.o(x$fpl$dsub) for __aeabi_dsub
    atan2.o(i.__hardfp_atan2) refers to daddsub_clz.o(x$fpl$drsb) for __aeabi_drsub
    atan2.o(i.__hardfp_atan2) refers to qnan.o(.constdata) for __mathlib_zero
    atan2.o(i.__softfp_atan2) refers (Special) to usenofp.o(x$fpl$usenofp) for __I$use$fp
    atan2.o(i.__softfp_atan2) refers to atan2.o(i.__hardfp_atan2) for __hardfp_atan2
    atan2.o(i.atan2) refers (Special) to usenofp.o(x$fpl$usenofp) for __I$use$fp
    atan2.o(i.atan2) refers to atan2.o(i.__hardfp_atan2) for __hardfp_atan2
    atan2_x.o(i.____hardfp_atan2$lsc) refers (Special) to usenofp.o(x$fpl$usenofp) for __I$use$fp
    atan2_x.o(i.____hardfp_atan2$lsc) refers to dunder.o(i.__mathlib_dbl_infnan2) for __mathlib_dbl_infnan2
    atan2_x.o(i.____hardfp_atan2$lsc) refers to atan.o(i.atan) for atan
    atan2_x.o(i.____hardfp_atan2$lsc) refers to _rserrno.o(.text) for __set_errno
    atan2_x.o(i.____hardfp_atan2$lsc) refers to basic.o(x$fpl$basic) for __aeabi_dneg
    atan2_x.o(i.____hardfp_atan2$lsc) refers to ddiv.o(x$fpl$ddiv) for __aeabi_ddiv
    atan2_x.o(i.____hardfp_atan2$lsc) refers to fabs.o(i.fabs) for fabs
    atan2_x.o(i.____hardfp_atan2$lsc) refers to daddsub_clz.o(x$fpl$dsub) for __aeabi_dsub
    atan2_x.o(i.____hardfp_atan2$lsc) refers to daddsub_clz.o(x$fpl$drsb) for __aeabi_drsub
    atan2_x.o(i.____hardfp_atan2$lsc) refers to qnan.o(.constdata) for __mathlib_zero
    atan2_x.o(i.____softfp_atan2$lsc) refers (Special) to usenofp.o(x$fpl$usenofp) for __I$use$fp
    atan2_x.o(i.____softfp_atan2$lsc) refers to atan2_x.o(i.____hardfp_atan2$lsc) for ____hardfp_atan2$lsc
    atan2_x.o(i.__atan2$lsc) refers (Special) to usenofp.o(x$fpl$usenofp) for __I$use$fp
    atan2_x.o(i.__atan2$lsc) refers to atan2_x.o(i.____hardfp_atan2$lsc) for ____hardfp_atan2$lsc
    fmod.o(i.__hardfp_fmod) refers (Special) to usenofp.o(x$fpl$usenofp) for __I$use$fp
    fmod.o(i.__hardfp_fmod) refers to drem_clz.o(x$fpl$drem) for _drem
    fmod.o(i.__hardfp_fmod) refers to daddsub_clz.o(x$fpl$drsb) for __aeabi_drsub
    fmod.o(i.__hardfp_fmod) refers to _rserrno.o(.text) for __set_errno
    fmod.o(i.__hardfp_fmod) refers to dunder.o(i.__mathlib_dbl_invalid) for __mathlib_dbl_invalid
    fmod.o(i.__softfp_fmod) refers (Special) to usenofp.o(x$fpl$usenofp) for __I$use$fp
    fmod.o(i.__softfp_fmod) refers to fmod.o(i.__hardfp_fmod) for __hardfp_fmod
    fmod.o(i.fmod) refers (Special) to usenofp.o(x$fpl$usenofp) for __I$use$fp
    fmod.o(i.fmod) refers to fmod.o(i.__hardfp_fmod) for __hardfp_fmod
    fmod_x.o(i.____hardfp_fmod$lsc) refers (Special) to usenofp.o(x$fpl$usenofp) for __I$use$fp
    fmod_x.o(i.____hardfp_fmod$lsc) refers to drem_clz.o(x$fpl$drem) for _drem
    fmod_x.o(i.____hardfp_fmod$lsc) refers to daddsub_clz.o(x$fpl$drsb) for __aeabi_drsub
    fmod_x.o(i.____hardfp_fmod$lsc) refers to _rserrno.o(.text) for __set_errno
    fmod_x.o(i.____softfp_fmod$lsc) refers (Special) to usenofp.o(x$fpl$usenofp) for __I$use$fp
    fmod_x.o(i.____softfp_fmod$lsc) refers to drem_clz.o(x$fpl$drem) for _drem
    fmod_x.o(i.____softfp_fmod$lsc) refers to daddsub_clz.o(x$fpl$drsb) for __aeabi_drsub
    fmod_x.o(i.____softfp_fmod$lsc) refers to _rserrno.o(.text) for __set_errno
    fmod_x.o(i.__fmod$lsc) refers (Special) to usenofp.o(x$fpl$usenofp) for __I$use$fp
    fmod_x.o(i.__fmod$lsc) refers to drem_clz.o(x$fpl$drem) for _drem
    fmod_x.o(i.__fmod$lsc) refers to daddsub_clz.o(x$fpl$drsb) for __aeabi_drsub
    fmod_x.o(i.__fmod$lsc) refers to _rserrno.o(.text) for __set_errno
    __rtentry.o(.ARM.Collect$$rtentry$$00000000) refers (Special) to __rtentry2.o(.ARM.Collect$$rtentry$$0000000A) for __rt_entry_li
    __rtentry.o(.ARM.Collect$$rtentry$$00000000) refers (Special) to __rtentry2.o(.ARM.Collect$$rtentry$$0000000D) for __rt_entry_main
    __rtentry.o(.ARM.Collect$$rtentry$$00000000) refers (Special) to __rtentry2.o(.ARM.Collect$$rtentry$$0000000C) for __rt_entry_postli_1
    __rtentry.o(.ARM.Collect$$rtentry$$00000000) refers (Special) to __rtentry2.o(.ARM.Collect$$rtentry$$00000009) for __rt_entry_postsh_1
    __rtentry.o(.ARM.Collect$$rtentry$$00000000) refers (Special) to __rtentry2.o(.ARM.Collect$$rtentry$$00000002) for __rt_entry_presh_1
    __rtentry.o(.ARM.Collect$$rtentry$$00000000) refers (Special) to __rtentry4.o(.ARM.Collect$$rtentry$$00000004) for __rt_entry_sh
    _rserrno.o(.text) refers to rt_errno_addr_intlibspace.o(.text) for __aeabi_errno_addr
    _printf_char_file.o(.text) refers to _printf_char_common.o(.text) for _printf_char_common
    _printf_char_file.o(.text) refers to ferror.o(.text) for ferror
    _printf_char_file.o(.text) refers to fputc.o(i.fputc) for fputc
    stdio_streams.o(.bss) refers (Special) to initio.o(.text) for _initio
    stdio_streams.o(.bss) refers (Special) to initio.o(.text) for _initio
    stdio_streams.o(.bss) refers (Special) to initio.o(.text) for _initio
    stdio_streams.o(.data) refers (Special) to initio.o(.text) for _initio
    stdio_streams.o(.data) refers (Special) to initio.o(.text) for _initio
    stdio_streams.o(.data) refers (Special) to initio.o(.text) for _initio
    rt_memclr.o(.text) refers to rt_memclr_w.o(.text) for _memset_w
    basic.o(x$fpl$basic) refers (Special) to usenofp.o(x$fpl$usenofp) for __I$use$fp
    ddiv.o(x$fpl$drdiv) refers (Special) to usenofp.o(x$fpl$usenofp) for __I$use$fp
    ddiv.o(x$fpl$drdiv) refers to ddiv.o(x$fpl$ddiv) for ddiv_entry
    ddiv.o(x$fpl$ddiv) refers (Special) to usenofp.o(x$fpl$usenofp) for __I$use$fp
    ddiv.o(x$fpl$ddiv) refers to dretinf.o(x$fpl$dretinf) for __fpl_dretinf
    ddiv.o(x$fpl$ddiv) refers to dnaninf.o(x$fpl$dnaninf) for __fpl_dnaninf
    dmul.o(x$fpl$dmul) refers (Special) to usenofp.o(x$fpl$usenofp) for __I$use$fp
    dmul.o(x$fpl$dmul) refers to dretinf.o(x$fpl$dretinf) for __fpl_dretinf
    dmul.o(x$fpl$dmul) refers to dnaninf.o(x$fpl$dnaninf) for __fpl_dnaninf
    dnaninf.o(x$fpl$dnaninf) refers (Special) to usenofp.o(x$fpl$usenofp) for __I$use$fp
    drem_clz.o(x$fpl$drem) refers (Special) to usenofp.o(x$fpl$usenofp) for __I$use$fp
    drem_clz.o(x$fpl$drem) refers to dnaninf.o(x$fpl$dnaninf) for __fpl_dnaninf
    dretinf.o(x$fpl$dretinf) refers (Special) to usenofp.o(x$fpl$usenofp) for __I$use$fp
    fnaninf.o(x$fpl$fnaninf) refers (Special) to usenofp.o(x$fpl$usenofp) for __I$use$fp
    fretinf.o(x$fpl$fretinf) refers (Special) to usenofp.o(x$fpl$usenofp) for __I$use$fp
    dunder.o(i.__mathlib_dbl_divzero) refers to ddiv.o(x$fpl$ddiv) for __aeabi_ddiv
    dunder.o(i.__mathlib_dbl_infnan) refers to daddsub_clz.o(x$fpl$dadd) for __aeabi_dadd
    dunder.o(i.__mathlib_dbl_infnan2) refers to daddsub_clz.o(x$fpl$dadd) for __aeabi_dadd
    dunder.o(i.__mathlib_dbl_invalid) refers to ddiv.o(x$fpl$ddiv) for __aeabi_ddiv
    dunder.o(i.__mathlib_dbl_overflow) refers to dmul.o(x$fpl$dmul) for __aeabi_dmul
    dunder.o(i.__mathlib_dbl_posinfnan) refers to dmul.o(x$fpl$dmul) for __aeabi_dmul
    dunder.o(i.__mathlib_dbl_underflow) refers to dmul.o(x$fpl$dmul) for __aeabi_dmul
    fabs.o(i.__hardfp_fabs) refers (Special) to usenofp.o(x$fpl$usenofp) for __I$use$fp
    fabs.o(i.__softfp_fabs) refers (Special) to usenofp.o(x$fpl$usenofp) for __I$use$fp
    fabs.o(i.fabs) refers (Special) to usenofp.o(x$fpl$usenofp) for __I$use$fp
    fpclassify.o(i.__ARM_fpclassify) refers (Special) to usenofp.o(x$fpl$usenofp) for __I$use$fp
    poly.o(i.__kernel_poly) refers (Special) to usenofp.o(x$fpl$usenofp) for __I$use$fp
    poly.o(i.__kernel_poly) refers to dmul.o(x$fpl$dmul) for __aeabi_dmul
    poly.o(i.__kernel_poly) refers to daddsub_clz.o(x$fpl$dadd) for __aeabi_dadd
    qnan.o(.constdata) refers (Special) to usenofp.o(x$fpl$usenofp) for __I$use$fp
    __rtentry2.o(.ARM.Collect$$rtentry$$00000008) refers to boardinit2.o(.text) for _platform_post_stackheap_init
    __rtentry2.o(.ARM.Collect$$rtentry$$0000000A) refers to libinit.o(.ARM.Collect$$libinit$$00000000) for __rt_lib_init
    __rtentry2.o(.ARM.Collect$$rtentry$$0000000B) refers to boardinit3.o(.text) for _platform_post_lib_init
    __rtentry2.o(.ARM.Collect$$rtentry$$0000000D) refers to main.o(i.main) for main
    __rtentry2.o(.ARM.Collect$$rtentry$$0000000D) refers to exit.o(.text) for exit
    __rtentry2.o(.ARM.exidx) refers to __rtentry2.o(.ARM.Collect$$rtentry$$00000001) for .ARM.Collect$$rtentry$$00000001
    __rtentry2.o(.ARM.exidx) refers to __rtentry2.o(.ARM.Collect$$rtentry$$00000008) for .ARM.Collect$$rtentry$$00000008
    __rtentry2.o(.ARM.exidx) refers to __rtentry2.o(.ARM.Collect$$rtentry$$0000000A) for .ARM.Collect$$rtentry$$0000000A
    __rtentry2.o(.ARM.exidx) refers to __rtentry2.o(.ARM.Collect$$rtentry$$0000000B) for .ARM.Collect$$rtentry$$0000000B
    __rtentry2.o(.ARM.exidx) refers to __rtentry2.o(.ARM.Collect$$rtentry$$0000000D) for .ARM.Collect$$rtentry$$0000000D
    __rtentry4.o(.ARM.Collect$$rtentry$$00000004) refers to sys_stackheap_outer.o(.text) for __user_setup_stackheap
    __rtentry4.o(.ARM.exidx) refers to __rtentry4.o(.ARM.Collect$$rtentry$$00000004) for .ARM.Collect$$rtentry$$00000004
    rt_errno_addr.o(.text) refers to rt_errno_addr.o(.bss) for __aeabi_errno_addr_data
    rt_errno_addr_intlibspace.o(.text) refers to libspace.o(.bss) for __libspace_start
    _printf_char_common.o(.text) refers to __printf.o(.text) for __printf
    fputc.o(i.fputc) refers to flsbuf.o(.text) for __flsbuf_byte
    initio.o(.text) refers (Special) to libinit2.o(.ARM.Collect$$libinit$$00000024) for __rt_lib_init_stdio_2
    initio.o(.text) refers (Special) to libshutdown2.o(.ARM.Collect$$libshutdown$$00000003) for __rt_lib_shutdown_stdio_2
    initio.o(.text) refers to rt_memclr_w.o(.text) for __aeabi_memclr4
    initio.o(.text) refers to fopen.o(.text) for freopen
    initio.o(.text) refers to defsig_rtred_outer.o(.text) for __rt_SIGRTRED
    initio.o(.text) refers to setvbuf.o(.text) for setvbuf
    initio.o(.text) refers to fclose.o(.text) for _fclose_internal
    initio.o(.text) refers to h1_free.o(.text) for free
    initio.o(.text) refers to stdio_streams.o(.bss) for __stdin
    initio.o(.text) refers to stdio_streams.o(.bss) for __stdout
    initio.o(.text) refers to stdio_streams.o(.bss) for __stderr
    initio.o(.text) refers to stdio_streams.o(.data) for __aeabi_stdin
    initio.o(.text) refers to stdio_streams.o(.data) for __aeabi_stdout
    initio.o(.text) refers to stdio_streams.o(.data) for __aeabi_stderr
    initio.o(.text) refers to sys_io.o(.constdata) for __stdin_name
    initio.o(.text) refers to sys_io.o(.constdata) for __stdout_name
    initio.o(.text) refers to sys_io.o(.constdata) for __stderr_name
    initio_locked.o(.text) refers (Special) to libinit2.o(.ARM.Collect$$libinit$$00000024) for __rt_lib_init_stdio_2
    initio_locked.o(.text) refers (Special) to libshutdown2.o(.ARM.Collect$$libshutdown$$00000003) for __rt_lib_shutdown_stdio_2
    initio_locked.o(.text) refers to rt_memclr_w.o(.text) for __aeabi_memclr4
    initio_locked.o(.text) refers to fopen.o(.text) for freopen
    initio_locked.o(.text) refers to defsig_rtred_outer.o(.text) for __rt_SIGRTRED
    initio_locked.o(.text) refers to setvbuf.o(.text) for setvbuf
    initio_locked.o(.text) refers to fclose.o(.text) for _fclose_internal
    initio_locked.o(.text) refers to h1_free.o(.text) for free
    initio_locked.o(.text) refers to stdio_streams.o(.bss) for __stdin
    initio_locked.o(.text) refers to stdio_streams.o(.bss) for __stdout
    initio_locked.o(.text) refers to stdio_streams.o(.bss) for __stderr
    initio_locked.o(.text) refers to stdio_streams.o(.data) for __aeabi_stdin
    initio_locked.o(.text) refers to stdio_streams.o(.data) for __aeabi_stdout
    initio_locked.o(.text) refers to stdio_streams.o(.data) for __aeabi_stderr
    initio_locked.o(.text) refers to streamlock.o(.data) for _stream_list_lock
    initio_locked.o(.text) refers to sys_io.o(.constdata) for __stdin_name
    initio_locked.o(.text) refers to sys_io.o(.constdata) for __stdout_name
    initio_locked.o(.text) refers to sys_io.o(.constdata) for __stderr_name
    sys_io.o(.text) refers (Special) to use_no_semi.o(.text) for __I$use$semihosting
    sys_io.o(.text) refers (Special) to indicate_semi.o(.text) for __semihosting_library_function
    sys_io.o(.text) refers to strlen.o(.text) for strlen
    sys_io.o(.constdata) refers (Special) to use_no_semi.o(.text) for __I$use$semihosting
    sys_io.o(.constdata) refers (Special) to indicate_semi.o(.text) for __semihosting_library_function
    sys_io.o(.constdata) refers (Special) to use_no_semi.o(.text) for __I$use$semihosting
    sys_io.o(.constdata) refers (Special) to indicate_semi.o(.text) for __semihosting_library_function
    sys_io.o(.constdata) refers (Special) to use_no_semi.o(.text) for __I$use$semihosting
    sys_io.o(.constdata) refers (Special) to indicate_semi.o(.text) for __semihosting_library_function
    libspace.o(.text) refers to libspace.o(.bss) for __libspace_start
    sys_stackheap_outer.o(.text) refers to libspace.o(.text) for __user_perproc_libspace
    sys_stackheap_outer.o(.text) refers to startup_stm32f427x.o(.text) for __user_initial_stackheap
    free.o(.text) refers (Special) to hguard.o(.text) for __heap$guard
    free.o(.text) refers to rt_heap_descriptor_intlibspace.o(.text) for __rt_heap_descriptor
    free.o(.text) refers to heapstubs.o(.text) for __Heap_Free
    h1_free.o(.text) refers to rt_heap_descriptor_intlibspace.o(.text) for __rt_heap_descriptor
    h1_free_mt.o(.text) refers to rt_heap_descriptor_intlibspace.o(.text) for __rt_heap_descriptor
    heap2.o(i._FDIterate) refers to heap2.o(.conststring) for .conststring
    heap2.o(i.___Heap_ProvideMemory$realtime) refers to fdtree.o(i._FDTree_Delete) for _FDTree_Delete
    heap2.o(i.___Heap_ProvideMemory$realtime) refers to fdtree.o(i._FDTree_Insert) for _FDTree_Insert
    heap2.o(i.___Heap_Stats$realtime) refers to heap2.o(i._Heap2_StatsIterate) for _Heap2_StatsIterate
    heap2.o(i.___Heap_Valid$realtime) refers to heap2.o(i._FDIterate) for _FDIterate
    heap2.o(i.___Heap_Valid$realtime) refers to heap2.o(.conststring) for .conststring
    heap2.o(i._free$realtime) refers to rt_heap_descriptor_intlibspace.o(.text) for __rt_heap_descriptor
    heap2.o(i._free$realtime) refers to fdtree.o(i._FDTree_Delete) for _FDTree_Delete
    heap2.o(i._free$realtime) refers to fdtree.o(i._FDTree_Insert) for _FDTree_Insert
    heap2.o(i._malloc$realtime) refers to rt_heap_descriptor_intlibspace.o(.text) for __rt_heap_descriptor
    heap2.o(i._malloc$realtime) refers to fdtree.o(i._FDTree_FindFirst) for _FDTree_FindFirst
    heap2.o(i._malloc$realtime) refers to init_alloc.o(.text) for __Heap_Full
    heap2.o(i._malloc$realtime) refers to fdtree.o(i._FDTree_RemoveNode) for _FDTree_RemoveNode
    heap2.o(i._malloc$realtime) refers to fdtree.o(i._FDTree_Insert) for _FDTree_Insert
    heap2.o(i._posix_memalign$realtime) refers to rt_heap_descriptor_intlibspace.o(.text) for __rt_heap_descriptor
    heap2.o(i._posix_memalign$realtime) refers to fdtree.o(i._FDTree_FindFirst) for _FDTree_FindFirst
    heap2.o(i._posix_memalign$realtime) refers to init_alloc.o(.text) for __Heap_Full
    heap2.o(i._posix_memalign$realtime) refers to fdtree.o(i._FDTree_RemoveNode) for _FDTree_RemoveNode
    heap2.o(i._posix_memalign$realtime) refers to fdtree.o(i._FDTree_Insert) for _FDTree_Insert
    heap2.o(i._realloc$realtime) refers to rt_heap_descriptor_intlibspace.o(.text) for __rt_heap_descriptor
    heap2.o(i._realloc$realtime) refers to fdtree.o(i._FDTree_Insert) for _FDTree_Insert
    heap2.o(i._realloc$realtime) refers to h1_free.o(.text) for free
    heap2.o(i._realloc$realtime) refers to h1_alloc.o(.text) for malloc
    heap2.o(i._realloc$realtime) refers to fdtree.o(i._FDTree_Delete) for _FDTree_Delete
    heap2.o(i._realloc$realtime) refers to rt_memcpy_w.o(.text) for __aeabi_memcpy4
    heap2mt.o(i._FDIterate) refers to heap2mt.o(.conststring) for .conststring
    heap2mt.o(i.___Heap_Initialize$realtime$concurrent) refers to mutex_dummy.o(.text) for _mutex_initialize
    heap2mt.o(i.___Heap_ProvideMemory$realtime$concurrent) refers to fdtree.o(i._FDTree_Delete) for _FDTree_Delete
    heap2mt.o(i.___Heap_ProvideMemory$realtime$concurrent) refers to fdtree.o(i._FDTree_Insert) for _FDTree_Insert
    heap2mt.o(i.___Heap_Stats$realtime$concurrent) refers to heap2mt.o(i._Heap2_StatsIterate) for _Heap2_StatsIterate
    heap2mt.o(i.___Heap_Valid$realtime$concurrent) refers to heap2mt.o(i._FDIterate) for _FDIterate
    heap2mt.o(i.___Heap_Valid$realtime$concurrent) refers to heap2mt.o(.conststring) for .conststring
    heap2mt.o(i._free$realtime$concurrent) refers to rt_heap_descriptor_intlibspace.o(.text) for __rt_heap_descriptor
    heap2mt.o(i._free$realtime$concurrent) refers to fdtree.o(i._FDTree_Delete) for _FDTree_Delete
    heap2mt.o(i._free$realtime$concurrent) refers to fdtree.o(i._FDTree_Insert) for _FDTree_Insert
    heap2mt.o(i._malloc$realtime$concurrent) refers to rt_heap_descriptor_intlibspace.o(.text) for __rt_heap_descriptor
    heap2mt.o(i._malloc$realtime$concurrent) refers to fdtree.o(i._FDTree_FindFirst) for _FDTree_FindFirst
    heap2mt.o(i._malloc$realtime$concurrent) refers to init_alloc.o(.text) for __Heap_Full
    heap2mt.o(i._malloc$realtime$concurrent) refers to fdtree.o(i._FDTree_RemoveNode) for _FDTree_RemoveNode
    heap2mt.o(i._malloc$realtime$concurrent) refers to fdtree.o(i._FDTree_Insert) for _FDTree_Insert
    heap2mt.o(i._posix_memalign$realtime$concurrent) refers to rt_heap_descriptor_intlibspace.o(.text) for __rt_heap_descriptor
    heap2mt.o(i._posix_memalign$realtime$concurrent) refers to fdtree.o(i._FDTree_FindFirst) for _FDTree_FindFirst
    heap2mt.o(i._posix_memalign$realtime$concurrent) refers to init_alloc.o(.text) for __Heap_Full
    heap2mt.o(i._posix_memalign$realtime$concurrent) refers to fdtree.o(i._FDTree_RemoveNode) for _FDTree_RemoveNode
    heap2mt.o(i._posix_memalign$realtime$concurrent) refers to fdtree.o(i._FDTree_Insert) for _FDTree_Insert
    heap2mt.o(i._realloc$realtime$concurrent) refers to rt_heap_descriptor_intlibspace.o(.text) for __rt_heap_descriptor
    heap2mt.o(i._realloc$realtime$concurrent) refers to fdtree.o(i._FDTree_Insert) for _FDTree_Insert
    heap2mt.o(i._realloc$realtime$concurrent) refers to h1_free.o(.text) for free
    heap2mt.o(i._realloc$realtime$concurrent) refers to h1_alloc.o(.text) for malloc
    heap2mt.o(i._realloc$realtime$concurrent) refers to fdtree.o(i._FDTree_Delete) for _FDTree_Delete
    heap2mt.o(i._realloc$realtime$concurrent) refers to rt_memcpy_w.o(.text) for __aeabi_memcpy4
    flsbuf.o(.text) refers to stdio.o(.text) for _deferredlazyseek
    flsbuf.o(.text) refers to sys_io.o(.text) for _sys_flen
    flsbuf.o(.text) refers to h1_alloc.o(.text) for malloc
    streamlock.o(.data) refers (Special) to initio.o(.text) for _initio
    fopen.o(.text) refers to fclose.o(.text) for _fclose_internal
    fopen.o(.text) refers to sys_io.o(.text) for _sys_open
    fopen.o(.text) refers to fseek.o(.text) for _fseek
    fopen.o(.text) refers to h1_alloc.o(.text) for malloc
    fopen.o(.text) refers to rt_memclr_w.o(.text) for __aeabi_memclr4
    fopen.o(.text) refers to stdio_streams.o(.bss) for __stdin
    fclose.o(.text) refers to stdio.o(.text) for _fflush
    fclose.o(.text) refers to sys_io.o(.text) for _sys_close
    fclose.o(.text) refers to h1_free.o(.text) for free
    fclose.o(.text) refers to rt_memclr_w.o(.text) for __aeabi_memclr4
    fopen_locked.o(.text) refers to fclose.o(.text) for _fclose_internal
    fopen_locked.o(.text) refers to sys_io.o(.text) for _sys_open
    fopen_locked.o(.text) refers to fseek.o(.text) for _fseek
    fopen_locked.o(.text) refers to h1_alloc.o(.text) for malloc
    fopen_locked.o(.text) refers to rt_memclr_w.o(.text) for __aeabi_memclr4
    fopen_locked.o(.text) refers to streamlock.o(.data) for _stream_list_lock
    fopen_locked.o(.text) refers to stdio_streams.o(.bss) for __stdin
    exit.o(.text) refers to rtexit.o(.ARM.Collect$$rtexit$$00000000) for __rt_exit
    defsig_rtred_outer.o(.text) refers to defsig_rtred_inner.o(.text) for __rt_SIGRTRED_inner
    defsig_rtred_outer.o(.text) refers to defsig_exit.o(.text) for __sig_exit
    defsig_rtred_formal.o(.text) refers to rt_raise.o(.text) for __rt_raise
    libinit.o(.ARM.Collect$$libinit$$00000000) refers (Special) to libinit2.o(.ARM.Collect$$libinit$$0000002E) for __rt_lib_init_alloca_1
    libinit.o(.ARM.Collect$$libinit$$00000000) refers (Special) to libinit2.o(.ARM.Collect$$libinit$$0000002C) for __rt_lib_init_argv_1
    libinit.o(.ARM.Collect$$libinit$$00000000) refers (Special) to libinit2.o(.ARM.Collect$$libinit$$0000001B) for __rt_lib_init_atexit_1
    libinit.o(.ARM.Collect$$libinit$$00000000) refers (Special) to libinit2.o(.ARM.Collect$$libinit$$00000021) for __rt_lib_init_clock_1
    libinit.o(.ARM.Collect$$libinit$$00000000) refers (Special) to libinit2.o(.ARM.Collect$$libinit$$00000032) for __rt_lib_init_cpp_1
    libinit.o(.ARM.Collect$$libinit$$00000000) refers (Special) to libinit2.o(.ARM.Collect$$libinit$$00000030) for __rt_lib_init_exceptions_1
    libinit.o(.ARM.Collect$$libinit$$00000000) refers (Special) to libinit2.o(.ARM.Collect$$libinit$$00000001) for __rt_lib_init_fp_1
    libinit.o(.ARM.Collect$$libinit$$00000000) refers (Special) to libinit2.o(.ARM.Collect$$libinit$$0000001F) for __rt_lib_init_fp_trap_1
    libinit.o(.ARM.Collect$$libinit$$00000000) refers (Special) to libinit2.o(.ARM.Collect$$libinit$$00000023) for __rt_lib_init_getenv_1
    libinit.o(.ARM.Collect$$libinit$$00000000) refers (Special) to libinit2.o(.ARM.Collect$$libinit$$0000000A) for __rt_lib_init_heap_1
    libinit.o(.ARM.Collect$$libinit$$00000000) refers (Special) to libinit2.o(.ARM.Collect$$libinit$$00000011) for __rt_lib_init_lc_collate_1
    libinit.o(.ARM.Collect$$libinit$$00000000) refers (Special) to libinit2.o(.ARM.Collect$$libinit$$00000013) for __rt_lib_init_lc_ctype_1
    libinit.o(.ARM.Collect$$libinit$$00000000) refers (Special) to libinit2.o(.ARM.Collect$$libinit$$00000015) for __rt_lib_init_lc_monetary_1
    libinit.o(.ARM.Collect$$libinit$$00000000) refers (Special) to libinit2.o(.ARM.Collect$$libinit$$00000017) for __rt_lib_init_lc_numeric_1
    libinit.o(.ARM.Collect$$libinit$$00000000) refers (Special) to libinit2.o(.ARM.Collect$$libinit$$00000019) for __rt_lib_init_lc_time_1
    libinit.o(.ARM.Collect$$libinit$$00000000) refers (Special) to libinit2.o(.ARM.Collect$$libinit$$00000004) for __rt_lib_init_preinit_1
    libinit.o(.ARM.Collect$$libinit$$00000000) refers (Special) to libinit2.o(.ARM.Collect$$libinit$$0000000E) for __rt_lib_init_rand_1
    libinit.o(.ARM.Collect$$libinit$$00000000) refers (Special) to libinit2.o(.ARM.Collect$$libinit$$00000033) for __rt_lib_init_return
    libinit.o(.ARM.Collect$$libinit$$00000000) refers (Special) to libinit2.o(.ARM.Collect$$libinit$$0000001D) for __rt_lib_init_signal_1
    libinit.o(.ARM.Collect$$libinit$$00000000) refers (Special) to libinit2.o(.ARM.Collect$$libinit$$00000025) for __rt_lib_init_stdio_1
    libinit.o(.ARM.Collect$$libinit$$00000000) refers (Special) to libinit2.o(.ARM.Collect$$libinit$$0000000C) for __rt_lib_init_user_alloc_1
    libinit2.o(.ARM.Collect$$libinit$$00000001) refers to fpinit.o(x$fpl$fpinit) for _fp_init
    libinit2.o(.ARM.Collect$$libinit$$00000005) refers (Weak) to init_alloc.o(.text) for _init_alloc
    libinit2.o(.ARM.Collect$$libinit$$00000010) refers to libinit2.o(.ARM.Collect$$libinit$$0000000F) for .ARM.Collect$$libinit$$0000000F
    libinit2.o(.ARM.Collect$$libinit$$00000012) refers to libinit2.o(.ARM.Collect$$libinit$$0000000F) for .ARM.Collect$$libinit$$0000000F
    libinit2.o(.ARM.Collect$$libinit$$00000014) refers to libinit2.o(.ARM.Collect$$libinit$$0000000F) for .ARM.Collect$$libinit$$0000000F
    libinit2.o(.ARM.Collect$$libinit$$00000016) refers to libinit2.o(.ARM.Collect$$libinit$$0000000F) for .ARM.Collect$$libinit$$0000000F
    libinit2.o(.ARM.Collect$$libinit$$00000018) refers to libinit2.o(.ARM.Collect$$libinit$$0000000F) for .ARM.Collect$$libinit$$0000000F
    libinit2.o(.ARM.Collect$$libinit$$00000024) refers (Weak) to initio.o(.text) for _initio
    libinit2.o(.ARM.Collect$$libinit$$00000026) refers to argv_veneer.o(.emb_text) for __ARM_argv_veneer
    libinit2.o(.ARM.Collect$$libinit$$00000027) refers to argv_veneer.o(.emb_text) for __ARM_argv_veneer
    libshutdown2.o(.ARM.Collect$$libshutdown$$00000003) refers (Weak) to initio.o(.text) for _terminateio
    libshutdown2.o(.ARM.Collect$$libshutdown$$0000000D) refers (Weak) to term_alloc.o(.text) for _terminate_alloc
    flsbuf_fwide.o(.text) refers to flsbuf.o(.text) for __flsbuf
    rtexit.o(.ARM.Collect$$rtexit$$00000000) refers (Special) to rtexit2.o(.ARM.Collect$$rtexit$$00000004) for __rt_exit_exit
    rtexit.o(.ARM.Collect$$rtexit$$00000000) refers (Special) to rtexit2.o(.ARM.Collect$$rtexit$$00000003) for __rt_exit_ls
    rtexit.o(.ARM.Collect$$rtexit$$00000000) refers (Special) to rtexit2.o(.ARM.Collect$$rtexit$$00000002) for __rt_exit_prels_1
    rtexit.o(.ARM.exidx) refers (Special) to rtexit2.o(.ARM.Collect$$rtexit$$00000004) for __rt_exit_exit
    rtexit.o(.ARM.exidx) refers (Special) to rtexit2.o(.ARM.Collect$$rtexit$$00000003) for __rt_exit_ls
    rtexit.o(.ARM.exidx) refers (Special) to rtexit2.o(.ARM.Collect$$rtexit$$00000002) for __rt_exit_prels_1
    rtexit.o(.ARM.exidx) refers to rtexit.o(.ARM.Collect$$rtexit$$00000000) for .ARM.Collect$$rtexit$$00000000
    rt_raise.o(.text) refers to __raise.o(.text) for __raise
    rt_raise.o(.text) refers to sys_exit.o(.text) for _sys_exit
    rt_heap_descriptor.o(.text) refers to rt_heap_descriptor.o(.bss) for __rt_heap_descriptor_data
    rt_heap_descriptor_intlibspace.o(.text) refers to libspace.o(.bss) for __libspace_start
    init_alloc.o(.text) refers (Special) to hguard.o(.text) for __heap$guard
    init_alloc.o(.text) refers (Special) to libinit2.o(.ARM.Collect$$libinit$$00000005) for __rt_lib_init_heap_2
    init_alloc.o(.text) refers (Special) to maybetermalloc1.o(.emb_text) for _maybe_terminate_alloc
    init_alloc.o(.text) refers to h1_extend.o(.text) for __Heap_ProvideMemory
    init_alloc.o(.text) refers to defsig_rtmem_outer.o(.text) for __rt_SIGRTMEM
    init_alloc.o(.text) refers to rt_heap_descriptor_intlibspace.o(.text) for __rt_heap_descriptor
    init_alloc.o(.text) refers to h1_init.o(.text) for __Heap_Initialize
    malloc.o(.text) refers (Special) to hguard.o(.text) for __heap$guard
    malloc.o(.text) refers (Special) to init_alloc.o(.text) for _init_alloc
    malloc.o(.text) refers to rt_heap_descriptor_intlibspace.o(.text) for __rt_heap_descriptor
    malloc.o(.text) refers to heapstubs.o(.text) for __Heap_Alloc
    h1_alloc.o(.text) refers (Special) to h1_init.o(.text) for __Heap_Initialize
    h1_alloc.o(.text) refers to rt_heap_descriptor_intlibspace.o(.text) for __rt_heap_descriptor
    h1_alloc.o(.text) refers to init_alloc.o(.text) for __Heap_Full
    h1_alloc_mt.o(.text) refers (Special) to h1_init.o(.text) for __Heap_Initialize
    h1_alloc_mt.o(.text) refers to init_alloc.o(.text) for __Heap_Full
    h1_alloc_mt.o(.text) refers to rt_heap_descriptor_intlibspace.o(.text) for __rt_heap_descriptor
    _printf_char_file_locked.o(.text) refers to _printf_char_common.o(.text) for _printf_char_common
    _printf_char_file_locked.o(.text) refers to fputc.o(i._fputc$unlocked) for _fputc$unlocked
    fseek.o(.text) refers to sys_io.o(.text) for _sys_istty
    fseek.o(.text) refers to ftell.o(.text) for _ftell_internal
    fseek.o(.text) refers to stdio.o(.text) for _seterr
    stdio.o(.text) refers to sys_io.o(.text) for _sys_seek
    fwritefast.o(.text) refers to stdio.o(.text) for _writebuf
    fwritefast.o(.text) refers to flsbuf.o(.text) for __flsbuf_byte
    fwritefast.o(.text) refers to rt_memcpy_v6.o(.text) for __aeabi_memcpy
    fwritefast_locked.o(.text) refers to stdio.o(.text) for _writebuf
    fwritefast_locked.o(.text) refers to flsbuf.o(.text) for __flsbuf_byte
    fwritefast_locked.o(.text) refers to rt_memcpy_v6.o(.text) for __aeabi_memcpy
    defsig_exit.o(.text) refers to sys_exit.o(.text) for _sys_exit
    defsig_rtred_inner.o(.text) refers to defsig_general.o(.text) for __default_signal_display
    assert_stdio.o(.text) refers to fputs.o(.text) for fputs
    assert_stdio.o(.text) refers to fflush.o(.text) for fflush
    assert_stdio.o(.text) refers to stdio_streams.o(.bss) for __stderr
    argv_veneer.o(.emb_text) refers to no_argv.o(.text) for __ARM_get_argv
    sys_exit.o(.text) refers (Special) to use_no_semi.o(.text) for __I$use$semihosting
    sys_exit.o(.text) refers (Special) to indicate_semi.o(.text) for __semihosting_library_function
    rtexit2.o(.ARM.Collect$$rtexit$$00000003) refers to libshutdown.o(.ARM.Collect$$libshutdown$$00000000) for __rt_lib_shutdown
    rtexit2.o(.ARM.Collect$$rtexit$$00000004) refers to sys_exit.o(.text) for _sys_exit
    rtexit2.o(.ARM.exidx) refers to rtexit2.o(.ARM.Collect$$rtexit$$00000001) for .ARM.Collect$$rtexit$$00000001
    rtexit2.o(.ARM.exidx) refers to rtexit2.o(.ARM.Collect$$rtexit$$00000003) for .ARM.Collect$$rtexit$$00000003
    rtexit2.o(.ARM.exidx) refers to rtexit2.o(.ARM.Collect$$rtexit$$00000004) for .ARM.Collect$$rtexit$$00000004
    maybetermalloc2.o(.emb_text) refers (Special) to term_alloc.o(.text) for _terminate_alloc
    h1_extend.o(.text) refers to h1_free.o(.text) for free
    h1_init_mt.o(.text) refers to mutex_dummy.o(.text) for _mutex_initialize
    h1_extend_mt.o(.text) refers to h1_free_mt.o(.text) for _free_internal
    fflush.o(.text) refers to stdio.o(.text) for _fflush
    fflush.o(.text) refers to fseek.o(.text) for _fseek
    fflush.o(.text) refers to stdio_streams.o(.bss) for __stdin
    fputs.o(.text) refers to fputc.o(i.fputc) for fputc
    ftell.o(.text) refers to rt_errno_addr_intlibspace.o(.text) for __aeabi_errno_addr
    fflush_locked.o(.text) refers to stdio.o(.text) for _fflush
    fflush_locked.o(.text) refers to fseek.o(.text) for _fseek
    fflush_locked.o(.text) refers to fflush.o(.text) for _do_fflush
    fflush_locked.o(.text) refers to streamlock.o(.data) for _stream_list_lock
    fflush_locked.o(.text) refers to stdio_streams.o(.bss) for __stdin
    __raise.o(.text) refers to defsig.o(CL$$defsig) for __default_signal_handler
    defsig_general.o(.text) refers to sys_wrch.o(.text) for _ttywrch
    defsig_rtmem_outer.o(.text) refers to defsig_rtmem_inner.o(.text) for __rt_SIGRTMEM_inner
    defsig_rtmem_outer.o(.text) refers to defsig_exit.o(.text) for __sig_exit
    defsig_rtmem_formal.o(.text) refers to rt_raise.o(.text) for __rt_raise
    heapauxa.o(.text) refers to heapauxa.o(.data) for .data
    _get_argv.o(.text) refers (Special) to hrguard.o(.text) for __heap_region$guard
    _get_argv.o(.text) refers to h1_alloc.o(.text) for malloc
    _get_argv.o(.text) refers to defsig_rtmem_outer.o(.text) for __rt_SIGRTMEM
    _get_argv.o(.text) refers to sys_command.o(.text) for _sys_command_string
    _get_argv_nomalloc.o(.text) refers (Special) to hrguard.o(.text) for __heap_region$guard
    _get_argv_nomalloc.o(.text) refers to defsig_rtmem_outer.o(.text) for __rt_SIGRTMEM
    _get_argv_nomalloc.o(.text) refers to sys_command.o(.text) for _sys_command_string
    sys_wrch.o(.text) refers (Special) to use_no_semi.o(.text) for __I$use$semihosting
    sys_wrch.o(.text) refers (Special) to indicate_semi.o(.text) for __semihosting_library_function
    sys_command.o(.text) refers (Special) to use_no_semi.o(.text) for __I$use$semihosting
    sys_command.o(.text) refers (Special) to indicate_semi.o(.text) for __semihosting_library_function
    term_alloc.o(.text) refers (Special) to libshutdown2.o(.ARM.Collect$$libshutdown$$0000000E) for __rt_lib_shutdown_heap_2
    term_alloc.o(.text) refers to rt_heap_descriptor_intlibspace.o(.text) for __rt_heap_descriptor
    term_alloc.o(.text) refers to h1_final.o(.text) for __Heap_Finalize
    defsig_rtmem_inner.o(.text) refers to defsig_general.o(.text) for __default_signal_display
    defsig.o(CL$$defsig) refers to defsig_rtred_inner.o(.text) for __rt_SIGRTRED_inner
    defsig.o(CL$$defsig) refers to defsig_rtmem_inner.o(.text) for __rt_SIGRTMEM_inner
    libshutdown.o(.ARM.Collect$$libshutdown$$00000000) refers (Special) to libshutdown2.o(.ARM.Collect$$libshutdown$$00000002) for __rt_lib_shutdown_cpp_1
    libshutdown.o(.ARM.Collect$$libshutdown$$00000000) refers (Special) to libshutdown2.o(.ARM.Collect$$libshutdown$$00000007) for __rt_lib_shutdown_fp_trap_1
    libshutdown.o(.ARM.Collect$$libshutdown$$00000000) refers (Special) to libshutdown2.o(.ARM.Collect$$libshutdown$$0000000F) for __rt_lib_shutdown_heap_1
    libshutdown.o(.ARM.Collect$$libshutdown$$00000000) refers (Special) to libshutdown2.o(.ARM.Collect$$libshutdown$$00000010) for __rt_lib_shutdown_return
    libshutdown.o(.ARM.Collect$$libshutdown$$00000000) refers (Special) to libshutdown2.o(.ARM.Collect$$libshutdown$$0000000A) for __rt_lib_shutdown_signal_1
    libshutdown.o(.ARM.Collect$$libshutdown$$00000000) refers (Special) to libshutdown2.o(.ARM.Collect$$libshutdown$$00000004) for __rt_lib_shutdown_stdio_1
    libshutdown.o(.ARM.Collect$$libshutdown$$00000000) refers (Special) to libshutdown2.o(.ARM.Collect$$libshutdown$$0000000C) for __rt_lib_shutdown_user_alloc_1
    defsig_abrt_inner.o(.text) refers to defsig_general.o(.text) for __default_signal_display
    defsig_fpe_inner.o(.text) refers to defsig_general.o(.text) for __default_signal_display
    defsig_stak_inner.o(.text) refers to defsig_general.o(.text) for __default_signal_display
    defsig_pvfn_inner.o(.text) refers to defsig_general.o(.text) for __default_signal_display
    defsig_cppl_inner.o(.text) refers to defsig_general.o(.text) for __default_signal_display
    defsig_segv_inner.o(.text) refers to defsig_general.o(.text) for __default_signal_display
    defsig_other.o(.text) refers to defsig_general.o(.text) for __default_signal_display


==============================================================================

Removing Unused input sections from the image.

    Removing main.o(.rev16_text), (4 bytes).
    Removing main.o(.revsh_text), (4 bytes).
    Removing it.o(.rev16_text), (4 bytes).
    Removing it.o(.revsh_text), (4 bytes).
    Removing io.o(.rev16_text), (4 bytes).
    Removing io.o(.revsh_text), (4 bytes).
    Removing can.o(.rev16_text), (4 bytes).
    Removing can.o(.revsh_text), (4 bytes).
    Removing can.o(i.fnMessage_CANSend), (2 bytes).
    Removing dma.o(.rev16_text), (4 bytes).
    Removing dma.o(.revsh_text), (4 bytes).
    Removing nvic.o(.rev16_text), (4 bytes).
    Removing nvic.o(.revsh_text), (4 bytes).
    Removing tim.o(.rev16_text), (4 bytes).
    Removing tim.o(.revsh_text), (4 bytes).
    Removing uart.o(.rev16_text), (4 bytes).
    Removing uart.o(.revsh_text), (4 bytes).
    Removing motor.o(.rev16_text), (4 bytes).
    Removing motor.o(.revsh_text), (4 bytes).
    Removing motor.o(i.configMotor_ParaInit), (2 bytes).
    Removing motor.o(i.fnM3508_SpeedCotrol), (96 bytes).
    Removing motor.o(i.fnM6020_Cotrol), (136 bytes).
    Removing motor.o(i.fnMotor_SetCurrentVal), (364 bytes).
    Removing motor.o(i.s_fnMotor_CANSend), (50 bytes).
    Removing motor.o(.bss), (96 bytes).
    Removing rm_remote.o(.rev16_text), (4 bytes).
    Removing rm_remote.o(.revsh_text), (4 bytes).
    Removing hi219m.o(.rev16_text), (4 bytes).
    Removing hi219m.o(.revsh_text), (4 bytes).
    Removing imu_data_decode.o(i.get_id), (16 bytes).
    Removing imu_data_decode.o(i.get_quat), (20 bytes).
    Removing imu_data_decode.o(i.get_raw_acc), (20 bytes).
    Removing packet.o(i.Packet_AddData), (32 bytes).
    Removing packet.o(i.Packet_Begin), (28 bytes).
    Removing packet.o(i.Packet_CreatePing), (26 bytes).
    Removing packet.o(i.Packet_CreatePingAck), (94 bytes).
    Removing packet.o(i.Packet_Final), (78 bytes).
    Removing vofa.o(.rev16_text), (4 bytes).
    Removing vofa.o(.revsh_text), (4 bytes).
    Removing vofa.o(i.VOFA_Send), (56 bytes).
    Removing vofa.o(.data), (4 bytes).
    Removing chassis_behavior.o(.rev16_text), (4 bytes).
    Removing chassis_behavior.o(.revsh_text), (4 bytes).
    Removing chassis_behavior.o(i.Chassis_Cali_Calc), (52 bytes).
    Removing chassis_behavior.o(i.Chassis_SetWorkState), (4 bytes).
    Removing minipc.o(.rev16_text), (4 bytes).
    Removing minipc.o(.revsh_text), (4 bytes).
    Removing minipc.o(.data), (2 bytes).
    Removing offline_detection.o(.rev16_text), (4 bytes).
    Removing offline_detection.o(.revsh_text), (4 bytes).
    Removing user_task.o(.rev16_text), (4 bytes).
    Removing user_task.o(.revsh_text), (4 bytes).
    Removing kalman.o(.rev16_text), (4 bytes).
    Removing kalman.o(.revsh_text), (4 bytes).
    Removing kalman.o(i.Filter_Calc), (106 bytes).
    Removing kalman.o(i.Filter_Init), (32 bytes).
    Removing kalman.o(i.kalman_calc), (672 bytes).
    Removing kalman.o(i.kalman_init), (104 bytes).
    Removing pid.o(.rev16_text), (4 bytes).
    Removing pid.o(.revsh_text), (4 bytes).
    Removing pid.o(i.Calc_Scope_PI), (152 bytes).
    Removing pid.o(i.Clear_Fabs_Scope_PI), (16 bytes).
    Removing pid.o(i.Set_Fabs_Scope_PI), (26 bytes).
    Removing pid.o(i.fnPID_Add_Calc), (382 bytes).
    Removing pid.o(i.fnPID_Calc), (350 bytes).
    Removing pid.o(i.fnPID_GetOutput), (6 bytes).
    Removing pid.o(i.fnPID_SetFeedback), (6 bytes).
    Removing pid.o(i.fnPID_SetPara_IM), (6 bytes).
    Removing pid.o(i.fnPID_SetPara_OM), (6 bytes).
    Removing pid.o(i.fnPID_SetPara_P_I_D), (14 bytes).
    Removing pid.o(i.fnPID_SetTarget), (6 bytes).
    Removing crc_check.o(.rev16_text), (4 bytes).
    Removing crc_check.o(.revsh_text), (4 bytes).
    Removing crc_check.o(i.Append_CRC16_Check_Sum), (48 bytes).
    Removing crc_check.o(i.Append_CRC8_Check_Sum), (36 bytes).
    Removing signal.o(.rev16_text), (4 bytes).
    Removing signal.o(.revsh_text), (4 bytes).
    Removing signal.o(i.configSignal_ParaInit), (116 bytes).
    Removing signal.o(i.fnSiganl_IsOverFlow), (28 bytes).
    Removing signal.o(i.fnSiganl_Reset), (24 bytes).
    Removing signal.o(i.fnSignal_BackRamp_Generate), (76 bytes).
    Removing signal.o(i.fnSignal_Ramp_Generate), (68 bytes).
    Removing signal.o(i.fnSignal_SetScale), (4 bytes).
    Removing signal.o(.data), (168 bytes).
    Removing kalmanfliter.o(i.KalmanCreate), (64 bytes).
    Removing kalmanfliter.o(i.KalmanFilter), (134 bytes).
    Removing arraylist.o(.rev16_text), (4 bytes).
    Removing arraylist.o(.revsh_text), (4 bytes).
    Removing arraylist.o(i.initArray), (48 bytes).
    Removing arraylist.o(i.insertValue), (74 bytes).
    Removing arraylist.o(i.inversion), (36 bytes).
    Removing arraylist.o(i.showArray), (68 bytes).
    Removing judge.o(.rev16_text), (4 bytes).
    Removing judge.o(.revsh_text), (4 bytes).
    Removing judge.o(i.Task_JudgeDataSend), (96 bytes).
    Removing misc.o(.rev16_text), (4 bytes).
    Removing misc.o(.revsh_text), (4 bytes).
    Removing misc.o(i.NVIC_SetVectorTable), (20 bytes).
    Removing misc.o(i.NVIC_SystemLPConfig), (32 bytes).
    Removing misc.o(i.SysTick_CLKSourceConfig), (40 bytes).
    Removing stm32f4xx_can.o(.rev16_text), (4 bytes).
    Removing stm32f4xx_can.o(.revsh_text), (4 bytes).
    Removing stm32f4xx_can.o(i.CAN_CancelTransmit), (48 bytes).
    Removing stm32f4xx_can.o(i.CAN_DBGFreeze), (22 bytes).
    Removing stm32f4xx_can.o(i.CAN_FIFORelease), (22 bytes).
    Removing stm32f4xx_can.o(i.CAN_GetFlagStatus), (120 bytes).
    Removing stm32f4xx_can.o(i.CAN_GetLSBTransmitErrorCounter), (12 bytes).
    Removing stm32f4xx_can.o(i.CAN_GetLastErrorCode), (12 bytes).
    Removing stm32f4xx_can.o(i.CAN_GetReceiveErrorCounter), (10 bytes).
    Removing stm32f4xx_can.o(i.CAN_MessagePending), (30 bytes).
    Removing stm32f4xx_can.o(i.CAN_OperatingModeRequest), (162 bytes).
    Removing stm32f4xx_can.o(i.CAN_SlaveStartBank), (52 bytes).
    Removing stm32f4xx_can.o(i.CAN_Sleep), (30 bytes).
    Removing stm32f4xx_can.o(i.CAN_TTComModeCmd), (118 bytes).
    Removing stm32f4xx_can.o(i.CAN_Transmit), (294 bytes).
    Removing stm32f4xx_can.o(i.CAN_TransmitStatus), (160 bytes).
    Removing stm32f4xx_can.o(i.CAN_WakeUp), (48 bytes).
    Removing stm32f4xx_dma.o(.rev16_text), (4 bytes).
    Removing stm32f4xx_dma.o(.revsh_text), (4 bytes).
    Removing stm32f4xx_dma.o(i.DMA_FlowControllerConfig), (22 bytes).
    Removing stm32f4xx_dma.o(i.DMA_GetFIFOStatus), (12 bytes).
    Removing stm32f4xx_dma.o(i.DMA_GetFlagStatus), (68 bytes).
    Removing stm32f4xx_dma.o(i.DMA_ITConfig), (58 bytes).
    Removing stm32f4xx_dma.o(i.DMA_MemoryTargetConfig), (10 bytes).
    Removing stm32f4xx_dma.o(i.DMA_PeriphIncOffsetSizeConfig), (22 bytes).
    Removing stm32f4xx_exti.o(.rev16_text), (4 bytes).
    Removing stm32f4xx_exti.o(.revsh_text), (4 bytes).
    Removing stm32f4xx_exti.o(i.EXTI_ClearFlag), (12 bytes).
    Removing stm32f4xx_exti.o(i.EXTI_ClearITPendingBit), (12 bytes).
    Removing stm32f4xx_exti.o(i.EXTI_DeInit), (36 bytes).
    Removing stm32f4xx_exti.o(i.EXTI_GenerateSWInterrupt), (16 bytes).
    Removing stm32f4xx_exti.o(i.EXTI_GetFlagStatus), (24 bytes).
    Removing stm32f4xx_exti.o(i.EXTI_GetITStatus), (24 bytes).
    Removing stm32f4xx_exti.o(i.EXTI_Init), (148 bytes).
    Removing stm32f4xx_exti.o(i.EXTI_StructInit), (16 bytes).
    Removing stm32f4xx_gpio.o(.rev16_text), (4 bytes).
    Removing stm32f4xx_gpio.o(.revsh_text), (4 bytes).
    Removing stm32f4xx_gpio.o(i.GPIO_DeInit), (312 bytes).
    Removing stm32f4xx_gpio.o(i.GPIO_PinLockConfig), (34 bytes).
    Removing stm32f4xx_gpio.o(i.GPIO_ReadInputData), (8 bytes).
    Removing stm32f4xx_gpio.o(i.GPIO_ReadInputDataBit), (18 bytes).
    Removing stm32f4xx_gpio.o(i.GPIO_ReadOutputData), (8 bytes).
    Removing stm32f4xx_gpio.o(i.GPIO_ReadOutputDataBit), (18 bytes).
    Removing stm32f4xx_gpio.o(i.GPIO_StructInit), (18 bytes).
    Removing stm32f4xx_gpio.o(i.GPIO_ToggleBits), (8 bytes).
    Removing stm32f4xx_gpio.o(i.GPIO_Write), (4 bytes).
    Removing stm32f4xx_gpio.o(i.GPIO_WriteBit), (10 bytes).
    Removing stm32f4xx_rcc.o(.rev16_text), (4 bytes).
    Removing stm32f4xx_rcc.o(.revsh_text), (4 bytes).
    Removing stm32f4xx_rcc.o(i.RCC_AHB1PeriphClockLPModeCmd), (32 bytes).
    Removing stm32f4xx_rcc.o(i.RCC_AHB1PeriphResetCmd), (32 bytes).
    Removing stm32f4xx_rcc.o(i.RCC_AHB2PeriphClockCmd), (32 bytes).
    Removing stm32f4xx_rcc.o(i.RCC_AHB2PeriphClockLPModeCmd), (32 bytes).
    Removing stm32f4xx_rcc.o(i.RCC_AHB2PeriphResetCmd), (32 bytes).
    Removing stm32f4xx_rcc.o(i.RCC_AHB3PeriphClockCmd), (32 bytes).
    Removing stm32f4xx_rcc.o(i.RCC_AHB3PeriphClockLPModeCmd), (32 bytes).
    Removing stm32f4xx_rcc.o(i.RCC_AHB3PeriphResetCmd), (32 bytes).
    Removing stm32f4xx_rcc.o(i.RCC_APB1PeriphClockLPModeCmd), (32 bytes).
    Removing stm32f4xx_rcc.o(i.RCC_APB2PeriphClockLPModeCmd), (32 bytes).
    Removing stm32f4xx_rcc.o(i.RCC_AdjustHSICalibrationValue), (24 bytes).
    Removing stm32f4xx_rcc.o(i.RCC_BackupResetCmd), (12 bytes).
    Removing stm32f4xx_rcc.o(i.RCC_ClearFlag), (20 bytes).
    Removing stm32f4xx_rcc.o(i.RCC_ClearITPendingBit), (12 bytes).
    Removing stm32f4xx_rcc.o(i.RCC_ClockSecuritySystemCmd), (12 bytes).
    Removing stm32f4xx_rcc.o(i.RCC_DeInit), (100 bytes).
    Removing stm32f4xx_rcc.o(i.RCC_GetFlagStatus), (64 bytes).
    Removing stm32f4xx_rcc.o(i.RCC_GetITStatus), (24 bytes).
    Removing stm32f4xx_rcc.o(i.RCC_GetSYSCLKSource), (16 bytes).
    Removing stm32f4xx_rcc.o(i.RCC_HCLKConfig), (24 bytes).
    Removing stm32f4xx_rcc.o(i.RCC_HSEConfig), (16 bytes).
    Removing stm32f4xx_rcc.o(i.RCC_HSICmd), (12 bytes).
    Removing stm32f4xx_rcc.o(i.RCC_I2SCLKConfig), (12 bytes).
    Removing stm32f4xx_rcc.o(i.RCC_ITConfig), (32 bytes).
    Removing stm32f4xx_rcc.o(i.RCC_LSEConfig), (44 bytes).
    Removing stm32f4xx_rcc.o(i.RCC_LSEModeConfig), (36 bytes).
    Removing stm32f4xx_rcc.o(i.RCC_LSICmd), (12 bytes).
    Removing stm32f4xx_rcc.o(i.RCC_LTDCCLKDivConfig), (24 bytes).
    Removing stm32f4xx_rcc.o(i.RCC_MCO1Config), (28 bytes).
    Removing stm32f4xx_rcc.o(i.RCC_MCO2Config), (28 bytes).
    Removing stm32f4xx_rcc.o(i.RCC_PCLK1Config), (24 bytes).
    Removing stm32f4xx_rcc.o(i.RCC_PCLK2Config), (24 bytes).
    Removing stm32f4xx_rcc.o(i.RCC_PLLCmd), (12 bytes).
    Removing stm32f4xx_rcc.o(i.RCC_PLLConfig), (36 bytes).
    Removing stm32f4xx_rcc.o(i.RCC_PLLI2SCmd), (12 bytes).
    Removing stm32f4xx_rcc.o(i.RCC_PLLI2SConfig), (24 bytes).
    Removing stm32f4xx_rcc.o(i.RCC_PLLSAICmd), (12 bytes).
    Removing stm32f4xx_rcc.o(i.RCC_PLLSAIConfig), (24 bytes).
    Removing stm32f4xx_rcc.o(i.RCC_RTCCLKCmd), (12 bytes).
    Removing stm32f4xx_rcc.o(i.RCC_RTCCLKConfig), (60 bytes).
    Removing stm32f4xx_rcc.o(i.RCC_SAIBlockACLKConfig), (24 bytes).
    Removing stm32f4xx_rcc.o(i.RCC_SAIBlockBCLKConfig), (24 bytes).
    Removing stm32f4xx_rcc.o(i.RCC_SAIPLLI2SClkDivConfig), (28 bytes).
    Removing stm32f4xx_rcc.o(i.RCC_SAIPLLSAIClkDivConfig), (28 bytes).
    Removing stm32f4xx_rcc.o(i.RCC_SYSCLKConfig), (24 bytes).
    Removing stm32f4xx_rcc.o(i.RCC_TIMCLKPresConfig), (12 bytes).
    Removing stm32f4xx_rcc.o(i.RCC_WaitForHSEStartUp), (56 bytes).
    Removing stm32f4xx_tim.o(.rev16_text), (4 bytes).
    Removing stm32f4xx_tim.o(.revsh_text), (4 bytes).
    Removing stm32f4xx_tim.o(i.TI1_Config), (58 bytes).
    Removing stm32f4xx_tim.o(i.TI2_Config), (80 bytes).
    Removing stm32f4xx_tim.o(i.TI3_Config), (72 bytes).
    Removing stm32f4xx_tim.o(i.TI4_Config), (80 bytes).
    Removing stm32f4xx_tim.o(i.TIM_ARRPreloadConfig), (24 bytes).
    Removing stm32f4xx_tim.o(i.TIM_BDTRConfig), (32 bytes).
    Removing stm32f4xx_tim.o(i.TIM_BDTRStructInit), (18 bytes).
    Removing stm32f4xx_tim.o(i.TIM_CCPreloadControl), (24 bytes).
    Removing stm32f4xx_tim.o(i.TIM_CCxCmd), (30 bytes).
    Removing stm32f4xx_tim.o(i.TIM_CCxNCmd), (30 bytes).
    Removing stm32f4xx_tim.o(i.TIM_ClearFlag), (6 bytes).
    Removing stm32f4xx_tim.o(i.TIM_ClearITPendingBit), (6 bytes).
    Removing stm32f4xx_tim.o(i.TIM_ClearOC1Ref), (18 bytes).
    Removing stm32f4xx_tim.o(i.TIM_ClearOC2Ref), (24 bytes).
    Removing stm32f4xx_tim.o(i.TIM_ClearOC3Ref), (18 bytes).
    Removing stm32f4xx_tim.o(i.TIM_ClearOC4Ref), (24 bytes).
    Removing stm32f4xx_tim.o(i.TIM_Cmd), (24 bytes).
    Removing stm32f4xx_tim.o(i.TIM_CounterModeConfig), (18 bytes).
    Removing stm32f4xx_tim.o(i.TIM_CtrlPWMOutputs), (30 bytes).
    Removing stm32f4xx_tim.o(i.TIM_DMACmd), (18 bytes).
    Removing stm32f4xx_tim.o(i.TIM_DMAConfig), (10 bytes).
    Removing stm32f4xx_tim.o(i.TIM_DeInit), (400 bytes).
    Removing stm32f4xx_tim.o(i.TIM_ETRClockMode1Config), (54 bytes).
    Removing stm32f4xx_tim.o(i.TIM_ETRClockMode2Config), (32 bytes).
    Removing stm32f4xx_tim.o(i.TIM_ETRConfig), (28 bytes).
    Removing stm32f4xx_tim.o(i.TIM_EncoderInterfaceConfig), (66 bytes).
    Removing stm32f4xx_tim.o(i.TIM_ForcedOC1Config), (18 bytes).
    Removing stm32f4xx_tim.o(i.TIM_ForcedOC2Config), (26 bytes).
    Removing stm32f4xx_tim.o(i.TIM_ForcedOC3Config), (18 bytes).
    Removing stm32f4xx_tim.o(i.TIM_ForcedOC4Config), (26 bytes).
    Removing stm32f4xx_tim.o(i.TIM_GenerateEvent), (4 bytes).
    Removing stm32f4xx_tim.o(i.TIM_GetCapture1), (6 bytes).
    Removing stm32f4xx_tim.o(i.TIM_GetCapture2), (6 bytes).
    Removing stm32f4xx_tim.o(i.TIM_GetCapture3), (6 bytes).
    Removing stm32f4xx_tim.o(i.TIM_GetCapture4), (6 bytes).
    Removing stm32f4xx_tim.o(i.TIM_GetCounter), (6 bytes).
    Removing stm32f4xx_tim.o(i.TIM_GetFlagStatus), (18 bytes).
    Removing stm32f4xx_tim.o(i.TIM_GetITStatus), (34 bytes).
    Removing stm32f4xx_tim.o(i.TIM_GetPrescaler), (6 bytes).
    Removing stm32f4xx_tim.o(i.TIM_ICInit), (110 bytes).
    Removing stm32f4xx_tim.o(i.TIM_ICStructInit), (18 bytes).
    Removing stm32f4xx_tim.o(i.TIM_ITConfig), (18 bytes).
    Removing stm32f4xx_tim.o(i.TIM_ITRxExternalClockConfig), (24 bytes).
    Removing stm32f4xx_tim.o(i.TIM_InternalClockConfig), (12 bytes).
    Removing stm32f4xx_tim.o(i.TIM_OC1FastConfig), (18 bytes).
    Removing stm32f4xx_tim.o(i.TIM_OC1Init), (124 bytes).
    Removing stm32f4xx_tim.o(i.TIM_OC1NPolarityConfig), (18 bytes).
    Removing stm32f4xx_tim.o(i.TIM_OC1PolarityConfig), (18 bytes).
    Removing stm32f4xx_tim.o(i.TIM_OC1PreloadConfig), (18 bytes).
    Removing stm32f4xx_tim.o(i.TIM_OC2FastConfig), (26 bytes).
    Removing stm32f4xx_tim.o(i.TIM_OC2Init), (164 bytes).
    Removing stm32f4xx_tim.o(i.TIM_OC2NPolarityConfig), (26 bytes).
    Removing stm32f4xx_tim.o(i.TIM_OC2PolarityConfig), (26 bytes).
    Removing stm32f4xx_tim.o(i.TIM_OC2PreloadConfig), (26 bytes).
    Removing stm32f4xx_tim.o(i.TIM_OC3FastConfig), (18 bytes).
    Removing stm32f4xx_tim.o(i.TIM_OC3Init), (160 bytes).
    Removing stm32f4xx_tim.o(i.TIM_OC3NPolarityConfig), (26 bytes).
    Removing stm32f4xx_tim.o(i.TIM_OC3PolarityConfig), (26 bytes).
    Removing stm32f4xx_tim.o(i.TIM_OC3PreloadConfig), (18 bytes).
    Removing stm32f4xx_tim.o(i.TIM_OC4FastConfig), (26 bytes).
    Removing stm32f4xx_tim.o(i.TIM_OC4Init), (120 bytes).
    Removing stm32f4xx_tim.o(i.TIM_OC4PolarityConfig), (26 bytes).
    Removing stm32f4xx_tim.o(i.TIM_OC4PreloadConfig), (26 bytes).
    Removing stm32f4xx_tim.o(i.TIM_OCStructInit), (20 bytes).
    Removing stm32f4xx_tim.o(i.TIM_PWMIConfig), (124 bytes).
    Removing stm32f4xx_tim.o(i.TIM_PrescalerConfig), (6 bytes).
    Removing stm32f4xx_tim.o(i.TIM_RemapConfig), (6 bytes).
    Removing stm32f4xx_tim.o(i.TIM_SelectCCDMA), (24 bytes).
    Removing stm32f4xx_tim.o(i.TIM_SelectCOM), (24 bytes).
    Removing stm32f4xx_tim.o(i.TIM_SelectHallSensor), (24 bytes).
    Removing stm32f4xx_tim.o(i.TIM_SelectInputTrigger), (18 bytes).
    Removing stm32f4xx_tim.o(i.TIM_SelectMasterSlaveMode), (18 bytes).
    Removing stm32f4xx_tim.o(i.TIM_SelectOCxM), (86 bytes).
    Removing stm32f4xx_tim.o(i.TIM_SelectOnePulseMode), (18 bytes).
    Removing stm32f4xx_tim.o(i.TIM_SelectOutputTrigger), (18 bytes).
    Removing stm32f4xx_tim.o(i.TIM_SelectSlaveMode), (18 bytes).
    Removing stm32f4xx_tim.o(i.TIM_SetAutoreload), (4 bytes).
    Removing stm32f4xx_tim.o(i.TIM_SetClockDivision), (18 bytes).
    Removing stm32f4xx_tim.o(i.TIM_SetCompare1), (4 bytes).
    Removing stm32f4xx_tim.o(i.TIM_SetCompare2), (4 bytes).
    Removing stm32f4xx_tim.o(i.TIM_SetCompare3), (4 bytes).
    Removing stm32f4xx_tim.o(i.TIM_SetCompare4), (4 bytes).
    Removing stm32f4xx_tim.o(i.TIM_SetCounter), (4 bytes).
    Removing stm32f4xx_tim.o(i.TIM_SetIC1Prescaler), (18 bytes).
    Removing stm32f4xx_tim.o(i.TIM_SetIC2Prescaler), (26 bytes).
    Removing stm32f4xx_tim.o(i.TIM_SetIC3Prescaler), (18 bytes).
    Removing stm32f4xx_tim.o(i.TIM_SetIC4Prescaler), (26 bytes).
    Removing stm32f4xx_tim.o(i.TIM_TIxExternalClockConfig), (62 bytes).
    Removing stm32f4xx_tim.o(i.TIM_TimeBaseInit), (132 bytes).
    Removing stm32f4xx_tim.o(i.TIM_TimeBaseStructInit), (18 bytes).
    Removing stm32f4xx_tim.o(i.TIM_UpdateDisableConfig), (24 bytes).
    Removing stm32f4xx_tim.o(i.TIM_UpdateRequestConfig), (24 bytes).
    Removing stm32f4xx_usart.o(.rev16_text), (4 bytes).
    Removing stm32f4xx_usart.o(.revsh_text), (4 bytes).
    Removing stm32f4xx_usart.o(i.USART_ClearFlag), (18 bytes).
    Removing stm32f4xx_usart.o(i.USART_ClearITPendingBit), (30 bytes).
    Removing stm32f4xx_usart.o(i.USART_ClockInit), (32 bytes).
    Removing stm32f4xx_usart.o(i.USART_ClockStructInit), (12 bytes).
    Removing stm32f4xx_usart.o(i.USART_GetFlagStatus), (26 bytes).
    Removing stm32f4xx_usart.o(i.USART_HalfDuplexCmd), (24 bytes).
    Removing stm32f4xx_usart.o(i.USART_IrDACmd), (24 bytes).
    Removing stm32f4xx_usart.o(i.USART_IrDAConfig), (18 bytes).
    Removing stm32f4xx_usart.o(i.USART_LINBreakDetectLengthConfig), (18 bytes).
    Removing stm32f4xx_usart.o(i.USART_LINCmd), (24 bytes).
    Removing stm32f4xx_usart.o(i.USART_OneBitMethodCmd), (24 bytes).
    Removing stm32f4xx_usart.o(i.USART_OverSampling8Cmd), (22 bytes).
    Removing stm32f4xx_usart.o(i.USART_ReceiveData), (10 bytes).
    Removing stm32f4xx_usart.o(i.USART_ReceiverWakeUpCmd), (24 bytes).
    Removing stm32f4xx_usart.o(i.USART_SendBreak), (10 bytes).
    Removing stm32f4xx_usart.o(i.USART_SendData), (8 bytes).
    Removing stm32f4xx_usart.o(i.USART_SetAddress), (18 bytes).
    Removing stm32f4xx_usart.o(i.USART_SetGuardTime), (16 bytes).
    Removing stm32f4xx_usart.o(i.USART_SetPrescaler), (16 bytes).
    Removing stm32f4xx_usart.o(i.USART_SmartCardCmd), (24 bytes).
    Removing stm32f4xx_usart.o(i.USART_SmartCardNACKCmd), (24 bytes).
    Removing stm32f4xx_usart.o(i.USART_WakeUpConfig), (18 bytes).
    Removing stm32f4xx_it.o(.rev16_text), (4 bytes).
    Removing stm32f4xx_it.o(.revsh_text), (4 bytes).
    Removing system_stm32f4xx.o(.rev16_text), (4 bytes).
    Removing system_stm32f4xx.o(.revsh_text), (4 bytes).
    Removing system_stm32f4xx.o(i.SystemCoreClockUpdate), (192 bytes).
    Removing system_stm32f4xx.o(.data), (20 bytes).
    Removing event_groups.o(i.prvTestWaitCondition), (30 bytes).
    Removing event_groups.o(i.vEventGroupClearBitsCallback), (16 bytes).
    Removing event_groups.o(i.vEventGroupDelete), (82 bytes).
    Removing event_groups.o(i.vEventGroupSetBitsCallback), (16 bytes).
    Removing event_groups.o(i.xEventGroupClearBits), (92 bytes).
    Removing event_groups.o(i.xEventGroupCreate), (26 bytes).
    Removing event_groups.o(i.xEventGroupGetBitsFromISR), (44 bytes).
    Removing event_groups.o(i.xEventGroupSetBits), (206 bytes).
    Removing event_groups.o(i.xEventGroupSync), (268 bytes).
    Removing event_groups.o(i.xEventGroupWaitBits), (340 bytes).
    Removing queue.o(i.pcQueueGetName), (44 bytes).
    Removing queue.o(i.prvInitialiseMutex), (28 bytes).
    Removing queue.o(i.uxQueueMessagesWaiting), (42 bytes).
    Removing queue.o(i.uxQueueMessagesWaitingFromISR), (30 bytes).
    Removing queue.o(i.uxQueueSpacesAvailable), (48 bytes).
    Removing queue.o(i.vQueueDelete), (44 bytes).
    Removing queue.o(i.vQueueUnregisterQueue), (48 bytes).
    Removing queue.o(i.xQueueCreateCountingSemaphore), (92 bytes).
    Removing queue.o(i.xQueueCreateMutex), (34 bytes).
    Removing queue.o(i.xQueueGiveMutexRecursive), (72 bytes).
    Removing queue.o(i.xQueueIsQueueEmptyFromISR), (38 bytes).
    Removing queue.o(i.xQueueIsQueueFullFromISR), (42 bytes).
    Removing queue.o(i.xQueuePeekFromISR), (176 bytes).
    Removing queue.o(i.xQueueReceiveFromISR), (202 bytes).
    Removing queue.o(i.xQueueTakeMutexRecursive), (82 bytes).
    Removing tasks.o(i.pcTaskGetName), (48 bytes).
    Removing tasks.o(i.prvTaskIsTaskSuspended), (88 bytes).
    Removing tasks.o(i.ulTaskNotifyTake), (116 bytes).
    Removing tasks.o(i.uxTaskGetNumberOfTasks), (12 bytes).
    Removing tasks.o(i.uxTaskPriorityGet), (36 bytes).
    Removing tasks.o(i.uxTaskPriorityGetFromISR), (68 bytes).
    Removing tasks.o(i.uxTaskResetEventItemValue), (28 bytes).
    Removing tasks.o(i.vTaskEndScheduler), (36 bytes).
    Removing tasks.o(i.vTaskNotifyGiveFromISR), (240 bytes).
    Removing tasks.o(i.vTaskPlaceOnUnorderedEventList), (108 bytes).
    Removing tasks.o(i.vTaskPrioritySet), (276 bytes).
    Removing tasks.o(i.vTaskResume), (144 bytes).
    Removing tasks.o(i.vTaskSuspend), (228 bytes).
    Removing tasks.o(i.xTaskGenericNotify), (260 bytes).
    Removing tasks.o(i.xTaskGenericNotifyFromISR), (324 bytes).
    Removing tasks.o(i.xTaskGetCurrentTaskHandle), (12 bytes).
    Removing tasks.o(i.xTaskGetTickCountFromISR), (20 bytes).
    Removing tasks.o(i.xTaskNotifyStateClear), (52 bytes).
    Removing tasks.o(i.xTaskNotifyWait), (160 bytes).
    Removing tasks.o(i.xTaskRemoveFromUnorderedEventList), (176 bytes).
    Removing tasks.o(i.xTaskResumeFromISR), (180 bytes).
    Removing timers.o(i.pcTimerGetName), (32 bytes).
    Removing timers.o(i.prvInitialiseNewTimer), (78 bytes).
    Removing timers.o(i.pvTimerGetTimerID), (44 bytes).
    Removing timers.o(i.vTimerSetTimerID), (44 bytes).
    Removing timers.o(i.xTimerCreate), (48 bytes).
    Removing timers.o(i.xTimerGetExpiryTime), (34 bytes).
    Removing timers.o(i.xTimerGetPeriod), (32 bytes).
    Removing timers.o(i.xTimerGetTimerDaemonTaskHandle), (48 bytes).
    Removing timers.o(i.xTimerIsTimerActive), (56 bytes).
    Removing heap_4.o(i.vPortInitialiseBlocks), (2 bytes).
    Removing heap_4.o(i.xPortGetFreeHeapSize), (12 bytes).
    Removing heap_4.o(i.xPortGetMinimumEverFreeHeapSize), (12 bytes).
    Removing port.o(i.vPortEndScheduler), (48 bytes).

379 unused section(s) (total 17050 bytes) removed from the image.

==============================================================================

Image Symbol Table

    Local Symbols

    Symbol Name                              Value     Ov Type        Size  Object(Section)

    ../clib/angel/boardlib.s                 0x00000000   Number         0  boardshut.o ABSOLUTE
    ../clib/angel/boardlib.s                 0x00000000   Number         0  boardinit3.o ABSOLUTE
    ../clib/angel/boardlib.s                 0x00000000   Number         0  boardinit1.o ABSOLUTE
    ../clib/angel/boardlib.s                 0x00000000   Number         0  boardinit2.o ABSOLUTE
    ../clib/angel/dczerorl2.s                0x00000000   Number         0  __dczerorl2.o ABSOLUTE
    ../clib/angel/handlers.s                 0x00000000   Number         0  __scatter_zi.o ABSOLUTE
    ../clib/angel/kernel.s                   0x00000000   Number         0  __rtentry2.o ABSOLUTE
    ../clib/angel/kernel.s                   0x00000000   Number         0  __rtentry4.o ABSOLUTE
    ../clib/angel/kernel.s                   0x00000000   Number         0  rtexit.o ABSOLUTE
    ../clib/angel/kernel.s                   0x00000000   Number         0  rtexit2.o ABSOLUTE
    ../clib/angel/kernel.s                   0x00000000   Number         0  __rtentry.o ABSOLUTE
    ../clib/angel/rt.s                       0x00000000   Number         0  rt_heap_descriptor.o ABSOLUTE
    ../clib/angel/rt.s                       0x00000000   Number         0  rt_errno_addr.o ABSOLUTE
    ../clib/angel/rt.s                       0x00000000   Number         0  rt_raise.o ABSOLUTE
    ../clib/angel/rt.s                       0x00000000   Number         0  rt_errno_addr_intlibspace.o ABSOLUTE
    ../clib/angel/rt.s                       0x00000000   Number         0  rt_heap_descriptor_intlibspace.o ABSOLUTE
    ../clib/angel/scatter.s                  0x00000000   Number         0  __scatter.o ABSOLUTE
    ../clib/angel/startup.s                  0x00000000   Number         0  __main.o ABSOLUTE
    ../clib/angel/sys.s                      0x00000000   Number         0  libspace.o ABSOLUTE
    ../clib/angel/sys.s                      0x00000000   Number         0  mutex_dummy.o ABSOLUTE
    ../clib/angel/sys.s                      0x00000000   Number         0  sys_stackheap_outer.o ABSOLUTE
    ../clib/angel/sys.s                      0x00000000   Number         0  indicate_semi.o ABSOLUTE
    ../clib/angel/sys.s                      0x00000000   Number         0  use_no_semi.o ABSOLUTE
    ../clib/angel/sysapp.c                   0x00000000   Number         0  sys_command.o ABSOLUTE
    ../clib/angel/sysapp.c                   0x00000000   Number         0  sys_io.o ABSOLUTE
    ../clib/angel/sysapp.c                   0x00000000   Number         0  sys_exit.o ABSOLUTE
    ../clib/angel/sysapp.c                   0x00000000   Number         0  sys_wrch.o ABSOLUTE
    ../clib/armsys.c                         0x00000000   Number         0  _get_argv.o ABSOLUTE
    ../clib/armsys.c                         0x00000000   Number         0  _get_argv_nomalloc.o ABSOLUTE
    ../clib/armsys.c                         0x00000000   Number         0  no_argv.o ABSOLUTE
    ../clib/armsys.c                         0x00000000   Number         0  argv_veneer.o ABSOLUTE
    ../clib/armsys.c                         0x00000000   Number         0  argv_veneer.o ABSOLUTE
    ../clib/assert.c                         0x00000000   Number         0  assert_stdio.o ABSOLUTE
    ../clib/fenv.c                           0x00000000   Number         0  _rserrno.o ABSOLUTE
    ../clib/heap1.c                          0x00000000   Number         0  h1_alloc_mt.o ABSOLUTE
    ../clib/heap1.c                          0x00000000   Number         0  h1_final_mt.o ABSOLUTE
    ../clib/heap1.c                          0x00000000   Number         0  h1_free.o ABSOLUTE
    ../clib/heap1.c                          0x00000000   Number         0  h1_init_mt.o ABSOLUTE
    ../clib/heap1.c                          0x00000000   Number         0  h1_free_mt.o ABSOLUTE
    ../clib/heap1.c                          0x00000000   Number         0  h1_final.o ABSOLUTE
    ../clib/heap1.c                          0x00000000   Number         0  h1_alloc.o ABSOLUTE
    ../clib/heap1.c                          0x00000000   Number         0  h1_init.o ABSOLUTE
    ../clib/heap1.c                          0x00000000   Number         0  h1_extend.o ABSOLUTE
    ../clib/heap1.c                          0x00000000   Number         0  h1_extend_mt.o ABSOLUTE
    ../clib/heap2.c                          0x00000000   Number         0  heap2mt.o ABSOLUTE
    ../clib/heap2.c                          0x00000000   Number         0  heap2.o ABSOLUTE
    ../clib/heap2.c                          0x00000000   Number         0  fdtree.o ABSOLUTE
    ../clib/heapalloc.c                      0x00000000   Number         0  malloc.o ABSOLUTE
    ../clib/heapalloc.c                      0x00000000   Number         0  hrguard.o ABSOLUTE
    ../clib/heapalloc.c                      0x00000000   Number         0  maybetermalloc1.o ABSOLUTE
    ../clib/heapalloc.c                      0x00000000   Number         0  maybetermalloc1.o ABSOLUTE
    ../clib/heapalloc.c                      0x00000000   Number         0  maybetermalloc2.o ABSOLUTE
    ../clib/heapalloc.c                      0x00000000   Number         0  maybetermalloc2.o ABSOLUTE
    ../clib/heapalloc.c                      0x00000000   Number         0  term_alloc.o ABSOLUTE
    ../clib/heapalloc.c                      0x00000000   Number         0  hguard.o ABSOLUTE
    ../clib/heapalloc.c                      0x00000000   Number         0  free.o ABSOLUTE
    ../clib/heapalloc.c                      0x00000000   Number         0  init_alloc.o ABSOLUTE
    ../clib/heapalloc.c                      0x00000000   Number         0  heapstubs.o ABSOLUTE
    ../clib/heapaux.c                        0x00000000   Number         0  heapauxi.o ABSOLUTE
    ../clib/heapaux.c                        0x00000000   Number         0  heapauxa.o ABSOLUTE
    ../clib/libinit.s                        0x00000000   Number         0  libshutdown2.o ABSOLUTE
    ../clib/libinit.s                        0x00000000   Number         0  libshutdown.o ABSOLUTE
    ../clib/libinit.s                        0x00000000   Number         0  libinit.o ABSOLUTE
    ../clib/libinit.s                        0x00000000   Number         0  libinit2.o ABSOLUTE
    ../clib/memcpset.s                       0x00000000   Number         0  rt_memcpy_w.o ABSOLUTE
    ../clib/memcpset.s                       0x00000000   Number         0  rt_memcpy_v6.o ABSOLUTE
    ../clib/memcpset.s                       0x00000000   Number         0  aeabi_memset.o ABSOLUTE
    ../clib/memcpset.s                       0x00000000   Number         0  rt_memclr_w.o ABSOLUTE
    ../clib/memcpset.s                       0x00000000   Number         0  rt_memclr.o ABSOLUTE
    ../clib/printf.c                         0x00000000   Number         0  _printf_hex_int_ll.o ABSOLUTE
    ../clib/printf.c                         0x00000000   Number         0  _printf_hex_int.o ABSOLUTE
    ../clib/printf.c                         0x00000000   Number         0  _printf_hex_ll.o ABSOLUTE
    ../clib/printf.c                         0x00000000   Number         0  __printf.o ABSOLUTE
    ../clib/printf.c                         0x00000000   Number         0  __printf_nopercent.o ABSOLUTE
    ../clib/printf.c                         0x00000000   Number         0  __2printf.o ABSOLUTE
    ../clib/printf.c                         0x00000000   Number         0  _printf_char_common.o ABSOLUTE
    ../clib/printf.c                         0x00000000   Number         0  __printf_flags_ss_wp.o ABSOLUTE
    ../clib/printf.c                         0x00000000   Number         0  __printf_ss_wp.o ABSOLUTE
    ../clib/printf.c                         0x00000000   Number         0  __printf_flags_wp.o ABSOLUTE
    ../clib/printf.c                         0x00000000   Number         0  __printf_wp.o ABSOLUTE
    ../clib/printf.c                         0x00000000   Number         0  noretval__2printf.o ABSOLUTE
    ../clib/printf.c                         0x00000000   Number         0  __printf_flags.o ABSOLUTE
    ../clib/printf.c                         0x00000000   Number         0  __printf_flags_ss.o ABSOLUTE
    ../clib/printf.c                         0x00000000   Number         0  __printf_ss.o ABSOLUTE
    ../clib/printf.c                         0x00000000   Number         0  _printf_hex_int_ll_ptr.o ABSOLUTE
    ../clib/printf.c                         0x00000000   Number         0  _printf_hex_ll_ptr.o ABSOLUTE
    ../clib/printf.c                         0x00000000   Number         0  _printf_char_file_locked.o ABSOLUTE
    ../clib/printf.c                         0x00000000   Number         0  _printf_hex_int_ptr.o ABSOLUTE
    ../clib/printf.c                         0x00000000   Number         0  _printf_char_file.o ABSOLUTE
    ../clib/printf.c                         0x00000000   Number         0  _printf_intcommon.o ABSOLUTE
    ../clib/printf.c                         0x00000000   Number         0  _printf_hex_ptr.o ABSOLUTE
    ../clib/printf_percent.s                 0x00000000   Number         0  _printf_percent_end.o ABSOLUTE
    ../clib/printf_percent.s                 0x00000000   Number         0  _printf_percent.o ABSOLUTE
    ../clib/printf_percent.s                 0x00000000   Number         0  _printf_x.o ABSOLUTE
    ../clib/signal.c                         0x00000000   Number         0  defsig_pvfn_inner.o ABSOLUTE
    ../clib/signal.c                         0x00000000   Number         0  defsig_stak_inner.o ABSOLUTE
    ../clib/signal.c                         0x00000000   Number         0  defsig_fpe_inner.o ABSOLUTE
    ../clib/signal.c                         0x00000000   Number         0  defsig_abrt_inner.o ABSOLUTE
    ../clib/signal.c                         0x00000000   Number         0  defsig_exit.o ABSOLUTE
    ../clib/signal.c                         0x00000000   Number         0  defsig_rtred_inner.o ABSOLUTE
    ../clib/signal.c                         0x00000000   Number         0  defsig_rtmem_formal.o ABSOLUTE
    ../clib/signal.c                         0x00000000   Number         0  defsig_rtmem_outer.o ABSOLUTE
    ../clib/signal.c                         0x00000000   Number         0  defsig_rtred_formal.o ABSOLUTE
    ../clib/signal.c                         0x00000000   Number         0  defsig_rtred_outer.o ABSOLUTE
    ../clib/signal.c                         0x00000000   Number         0  defsig_general.o ABSOLUTE
    ../clib/signal.c                         0x00000000   Number         0  __raise.o ABSOLUTE
    ../clib/signal.c                         0x00000000   Number         0  defsig_other.o ABSOLUTE
    ../clib/signal.c                         0x00000000   Number         0  defsig_rtmem_inner.o ABSOLUTE
    ../clib/signal.c                         0x00000000   Number         0  defsig_segv_inner.o ABSOLUTE
    ../clib/signal.c                         0x00000000   Number         0  defsig_cppl_inner.o ABSOLUTE
    ../clib/signal.s                         0x00000000   Number         0  defsig.o ABSOLUTE
    ../clib/stdio.c                          0x00000000   Number         0  ftell.o ABSOLUTE
    ../clib/stdio.c                          0x00000000   Number         0  fputc.o ABSOLUTE
    ../clib/stdio.c                          0x00000000   Number         0  fflush.o ABSOLUTE
    ../clib/stdio.c                          0x00000000   Number         0  fseek.o ABSOLUTE
    ../clib/stdio.c                          0x00000000   Number         0  stdio.o ABSOLUTE
    ../clib/stdio.c                          0x00000000   Number         0  fwritefast.o ABSOLUTE
    ../clib/stdio.c                          0x00000000   Number         0  fwritefast_locked.o ABSOLUTE
    ../clib/stdio.c                          0x00000000   Number         0  fputs.o ABSOLUTE
    ../clib/stdio.c                          0x00000000   Number         0  fopen_locked.o ABSOLUTE
    ../clib/stdio.c                          0x00000000   Number         0  setvbuf_locked.o ABSOLUTE
    ../clib/stdio.c                          0x00000000   Number         0  fclose.o ABSOLUTE
    ../clib/stdio.c                          0x00000000   Number         0  fopen.o ABSOLUTE
    ../clib/stdio.c                          0x00000000   Number         0  streamlock.o ABSOLUTE
    ../clib/stdio.c                          0x00000000   Number         0  setvbuf.o ABSOLUTE
    ../clib/stdio.c                          0x00000000   Number         0  flsbuf.o ABSOLUTE
    ../clib/stdio.c                          0x00000000   Number         0  initio_locked.o ABSOLUTE
    ../clib/stdio.c                          0x00000000   Number         0  ferror_locked.o ABSOLUTE
    ../clib/stdio.c                          0x00000000   Number         0  fputc_locked.o ABSOLUTE
    ../clib/stdio.c                          0x00000000   Number         0  ferror.o ABSOLUTE
    ../clib/stdio.c                          0x00000000   Number         0  stdio_streams.o ABSOLUTE
    ../clib/stdio.c                          0x00000000   Number         0  initio.o ABSOLUTE
    ../clib/stdio.c                          0x00000000   Number         0  fflush_locked.o ABSOLUTE
    ../clib/stdio.c                          0x00000000   Number         0  fputs_locked.o ABSOLUTE
    ../clib/stdlib.c                         0x00000000   Number         0  exit.o ABSOLUTE
    ../clib/string.c                         0x00000000   Number         0  strlen.o ABSOLUTE
    ../clib/wchar.c                          0x00000000   Number         0  flsbuf_fwide.o ABSOLUTE
    ../fplib/basic.s                         0x00000000   Number         0  basic.o ABSOLUTE
    ../fplib/d2f.s                           0x00000000   Number         0  d2f.o ABSOLUTE
    ../fplib/daddsub.s                       0x00000000   Number         0  daddsub_clz.o ABSOLUTE
    ../fplib/ddiv.s                          0x00000000   Number         0  ddiv.o ABSOLUTE
    ../fplib/dmul.s                          0x00000000   Number         0  dmul.o ABSOLUTE
    ../fplib/dnaninf.s                       0x00000000   Number         0  dnaninf.o ABSOLUTE
    ../fplib/drem.s                          0x00000000   Number         0  drem_clz.o ABSOLUTE
    ../fplib/dretinf.s                       0x00000000   Number         0  dretinf.o ABSOLUTE
    ../fplib/f2d.s                           0x00000000   Number         0  f2d.o ABSOLUTE
    ../fplib/fnaninf.s                       0x00000000   Number         0  fnaninf.o ABSOLUTE
    ../fplib/fpinit.s                        0x00000000   Number         0  fpinit.o ABSOLUTE
    ../fplib/fretinf.s                       0x00000000   Number         0  fretinf.o ABSOLUTE
    ../fplib/usenofp.s                       0x00000000   Number         0  usenofp.o ABSOLUTE
    ../mathlib/atan.c                        0x00000000   Number         0  atan_x.o ABSOLUTE
    ../mathlib/atan.c                        0x00000000   Number         0  atan.o ABSOLUTE
    ../mathlib/atan2.c                       0x00000000   Number         0  atan2.o ABSOLUTE
    ../mathlib/atan2.c                       0x00000000   Number         0  atan2_x.o ABSOLUTE
    ../mathlib/dunder.c                      0x00000000   Number         0  dunder.o ABSOLUTE
    ../mathlib/fabs.c                        0x00000000   Number         0  fabs.o ABSOLUTE
    ../mathlib/fmod.c                        0x00000000   Number         0  fmod.o ABSOLUTE
    ../mathlib/fmod.c                        0x00000000   Number         0  fmod_x.o ABSOLUTE
    ../mathlib/fpclassify.c                  0x00000000   Number         0  fpclassify.o ABSOLUTE
    ../mathlib/poly.c                        0x00000000   Number         0  poly.o ABSOLUTE
    ../mathlib/qnan.c                        0x00000000   Number         0  qnan.o ABSOLUTE
    ..\CORE\startup_stm32f427x.s             0x00000000   Number         0  startup_stm32f427x.o ABSOLUTE
    ..\FWLIB\src\misc.c                      0x00000000   Number         0  misc.o ABSOLUTE
    ..\FWLIB\src\stm32f4xx_can.c             0x00000000   Number         0  stm32f4xx_can.o ABSOLUTE
    ..\FWLIB\src\stm32f4xx_dma.c             0x00000000   Number         0  stm32f4xx_dma.o ABSOLUTE
    ..\FWLIB\src\stm32f4xx_exti.c            0x00000000   Number         0  stm32f4xx_exti.o ABSOLUTE
    ..\FWLIB\src\stm32f4xx_gpio.c            0x00000000   Number         0  stm32f4xx_gpio.o ABSOLUTE
    ..\FWLIB\src\stm32f4xx_rcc.c             0x00000000   Number         0  stm32f4xx_rcc.o ABSOLUTE
    ..\FWLIB\src\stm32f4xx_tim.c             0x00000000   Number         0  stm32f4xx_tim.o ABSOLUTE
    ..\FWLIB\src\stm32f4xx_usart.c           0x00000000   Number         0  stm32f4xx_usart.o ABSOLUTE
    ..\FreeRTOS\croutine.c                   0x00000000   Number         0  croutine.o ABSOLUTE
    ..\FreeRTOS\event_groups.c               0x00000000   Number         0  event_groups.o ABSOLUTE
    ..\FreeRTOS\list.c                       0x00000000   Number         0  list.o ABSOLUTE
    ..\FreeRTOS\portable\MemMang\heap_4.c    0x00000000   Number         0  heap_4.o ABSOLUTE
    ..\FreeRTOS\portable\RVDS\ARM_CM4F\port.c 0x00000000   Number         0  port.o ABSOLUTE
    ..\FreeRTOS\queue.c                      0x00000000   Number         0  queue.o ABSOLUTE
    ..\FreeRTOS\tasks.c                      0x00000000   Number         0  tasks.o ABSOLUTE
    ..\FreeRTOS\timers.c                     0x00000000   Number         0  timers.o ABSOLUTE
    ..\LIB\APP\src\chassis_behavior.c        0x00000000   Number         0  chassis_behavior.o ABSOLUTE
    ..\LIB\APP\src\minipc.c                  0x00000000   Number         0  minipc.o ABSOLUTE
    ..\LIB\APP\src\offline_detection.c       0x00000000   Number         0  offline_detection.o ABSOLUTE
    ..\LIB\APP\src\user_task.c               0x00000000   Number         0  user_task.o ABSOLUTE
    ..\LIB\BSP\src\can.c                     0x00000000   Number         0  can.o ABSOLUTE
    ..\LIB\BSP\src\dma.c                     0x00000000   Number         0  dma.o ABSOLUTE
    ..\LIB\BSP\src\io.c                      0x00000000   Number         0  io.o ABSOLUTE
    ..\LIB\BSP\src\nvic.c                    0x00000000   Number         0  nvic.o ABSOLUTE
    ..\LIB\BSP\src\tim.c                     0x00000000   Number         0  tim.o ABSOLUTE
    ..\LIB\BSP\src\uart.c                    0x00000000   Number         0  uart.o ABSOLUTE
    ..\LIB\HARDWARE\src\hi219m.c             0x00000000   Number         0  hi219m.o ABSOLUTE
    ..\LIB\HARDWARE\src\imu_data_decode.c    0x00000000   Number         0  imu_data_decode.o ABSOLUTE
    ..\LIB\HARDWARE\src\motor.c              0x00000000   Number         0  motor.o ABSOLUTE
    ..\LIB\HARDWARE\src\packet.c             0x00000000   Number         0  packet.o ABSOLUTE
    ..\LIB\HARDWARE\src\rm_remote.c          0x00000000   Number         0  rm_remote.o ABSOLUTE
    ..\LIB\HARDWARE\src\vofa.c               0x00000000   Number         0  vofa.o ABSOLUTE
    ..\LIB\Judge\src\Arraylist.c             0x00000000   Number         0  arraylist.o ABSOLUTE
    ..\LIB\Judge\src\judge.c                 0x00000000   Number         0  judge.o ABSOLUTE
    ..\LIB\TCA\src\KalmanFliter.c            0x00000000   Number         0  kalmanfliter.o ABSOLUTE
    ..\LIB\TCA\src\crc_check.c               0x00000000   Number         0  crc_check.o ABSOLUTE
    ..\LIB\TCA\src\kalman.c                  0x00000000   Number         0  kalman.o ABSOLUTE
    ..\LIB\TCA\src\pid.c                     0x00000000   Number         0  pid.o ABSOLUTE
    ..\LIB\TCA\src\signal.c                  0x00000000   Number         0  signal.o ABSOLUTE
    ..\USER\main.c                           0x00000000   Number         0  main.o ABSOLUTE
    ..\USER\stm32f4xx_it.c                   0x00000000   Number         0  stm32f4xx_it.o ABSOLUTE
    ..\USER\system_stm32f4xx.c               0x00000000   Number         0  system_stm32f4xx.o ABSOLUTE
    ..\\FWLIB\\src\\misc.c                   0x00000000   Number         0  misc.o ABSOLUTE
    ..\\FWLIB\\src\\stm32f4xx_can.c          0x00000000   Number         0  stm32f4xx_can.o ABSOLUTE
    ..\\FWLIB\\src\\stm32f4xx_dma.c          0x00000000   Number         0  stm32f4xx_dma.o ABSOLUTE
    ..\\FWLIB\\src\\stm32f4xx_exti.c         0x00000000   Number         0  stm32f4xx_exti.o ABSOLUTE
    ..\\FWLIB\\src\\stm32f4xx_gpio.c         0x00000000   Number         0  stm32f4xx_gpio.o ABSOLUTE
    ..\\FWLIB\\src\\stm32f4xx_rcc.c          0x00000000   Number         0  stm32f4xx_rcc.o ABSOLUTE
    ..\\FWLIB\\src\\stm32f4xx_tim.c          0x00000000   Number         0  stm32f4xx_tim.o ABSOLUTE
    ..\\FWLIB\\src\\stm32f4xx_usart.c        0x00000000   Number         0  stm32f4xx_usart.o ABSOLUTE
    ..\\FreeRTOS\\portable\\RVDS\\ARM_CM4F\\port.c 0x00000000   Number         0  port.o ABSOLUTE
    ..\\LIB\\APP\\src\\chassis_behavior.c    0x00000000   Number         0  chassis_behavior.o ABSOLUTE
    ..\\LIB\\APP\\src\\minipc.c              0x00000000   Number         0  minipc.o ABSOLUTE
    ..\\LIB\\APP\\src\\offline_detection.c   0x00000000   Number         0  offline_detection.o ABSOLUTE
    ..\\LIB\\APP\\src\\user_task.c           0x00000000   Number         0  user_task.o ABSOLUTE
    ..\\LIB\\BSP\\src\\can.c                 0x00000000   Number         0  can.o ABSOLUTE
    ..\\LIB\\BSP\\src\\dma.c                 0x00000000   Number         0  dma.o ABSOLUTE
    ..\\LIB\\BSP\\src\\io.c                  0x00000000   Number         0  io.o ABSOLUTE
    ..\\LIB\\BSP\\src\\nvic.c                0x00000000   Number         0  nvic.o ABSOLUTE
    ..\\LIB\\BSP\\src\\tim.c                 0x00000000   Number         0  tim.o ABSOLUTE
    ..\\LIB\\BSP\\src\\uart.c                0x00000000   Number         0  uart.o ABSOLUTE
    ..\\LIB\\HARDWARE\\src\\hi219m.c         0x00000000   Number         0  hi219m.o ABSOLUTE
    ..\\LIB\\HARDWARE\\src\\motor.c          0x00000000   Number         0  motor.o ABSOLUTE
    ..\\LIB\\HARDWARE\\src\\rm_remote.c      0x00000000   Number         0  rm_remote.o ABSOLUTE
    ..\\LIB\\HARDWARE\\src\\vofa.c           0x00000000   Number         0  vofa.o ABSOLUTE
    ..\\LIB\\Judge\\src\\Arraylist.c         0x00000000   Number         0  arraylist.o ABSOLUTE
    ..\\LIB\\Judge\\src\\judge.c             0x00000000   Number         0  judge.o ABSOLUTE
    ..\\LIB\\TCA\\src\\crc_check.c           0x00000000   Number         0  crc_check.o ABSOLUTE
    ..\\LIB\\TCA\\src\\kalman.c              0x00000000   Number         0  kalman.o ABSOLUTE
    ..\\LIB\\TCA\\src\\pid.c                 0x00000000   Number         0  pid.o ABSOLUTE
    ..\\LIB\\TCA\\src\\signal.c              0x00000000   Number         0  signal.o ABSOLUTE
    ..\\USER\\main.c                         0x00000000   Number         0  main.o ABSOLUTE
    ..\\USER\\stm32f4xx_it.c                 0x00000000   Number         0  stm32f4xx_it.o ABSOLUTE
    ..\\USER\\system_stm32f4xx.c             0x00000000   Number         0  system_stm32f4xx.o ABSOLUTE
    ..\\user\\it.c                           0x00000000   Number         0  it.o ABSOLUTE
    ..\user\it.c                             0x00000000   Number         0  it.o ABSOLUTE
    dc.s                                     0x00000000   Number         0  dc.o ABSOLUTE
    RESET                                    0x08000000   Section      428  startup_stm32f427x.o(RESET)
    !!!main                                  0x080001ac   Section        8  __main.o(!!!main)
    !!!scatter                               0x080001b4   Section       52  __scatter.o(!!!scatter)
    !!dczerorl2                              0x080001e8   Section       90  __dczerorl2.o(!!dczerorl2)
    !!handler_zi                             0x08000244   Section       28  __scatter_zi.o(!!handler_zi)
    .ARM.Collect$$libinit$$00000000          0x08000260   Section        2  libinit.o(.ARM.Collect$$libinit$$00000000)
    .ARM.Collect$$libinit$$00000001          0x08000262   Section        4  libinit2.o(.ARM.Collect$$libinit$$00000001)
    .ARM.Collect$$libinit$$00000004          0x08000266   Section        0  libinit2.o(.ARM.Collect$$libinit$$00000004)
    .ARM.Collect$$libinit$$0000000A          0x08000266   Section        0  libinit2.o(.ARM.Collect$$libinit$$0000000A)
    .ARM.Collect$$libinit$$0000000C          0x08000266   Section        0  libinit2.o(.ARM.Collect$$libinit$$0000000C)
    .ARM.Collect$$libinit$$0000000E          0x08000266   Section        0  libinit2.o(.ARM.Collect$$libinit$$0000000E)
    .ARM.Collect$$libinit$$00000011          0x08000266   Section        0  libinit2.o(.ARM.Collect$$libinit$$00000011)
    .ARM.Collect$$libinit$$00000013          0x08000266   Section        0  libinit2.o(.ARM.Collect$$libinit$$00000013)
    .ARM.Collect$$libinit$$00000015          0x08000266   Section        0  libinit2.o(.ARM.Collect$$libinit$$00000015)
    .ARM.Collect$$libinit$$00000017          0x08000266   Section        0  libinit2.o(.ARM.Collect$$libinit$$00000017)
    .ARM.Collect$$libinit$$00000019          0x08000266   Section        0  libinit2.o(.ARM.Collect$$libinit$$00000019)
    .ARM.Collect$$libinit$$0000001B          0x08000266   Section        0  libinit2.o(.ARM.Collect$$libinit$$0000001B)
    .ARM.Collect$$libinit$$0000001D          0x08000266   Section        0  libinit2.o(.ARM.Collect$$libinit$$0000001D)
    .ARM.Collect$$libinit$$0000001F          0x08000266   Section        0  libinit2.o(.ARM.Collect$$libinit$$0000001F)
    .ARM.Collect$$libinit$$00000021          0x08000266   Section        0  libinit2.o(.ARM.Collect$$libinit$$00000021)
    .ARM.Collect$$libinit$$00000023          0x08000266   Section        0  libinit2.o(.ARM.Collect$$libinit$$00000023)
    .ARM.Collect$$libinit$$00000025          0x08000266   Section        0  libinit2.o(.ARM.Collect$$libinit$$00000025)
    .ARM.Collect$$libinit$$0000002C          0x08000266   Section        0  libinit2.o(.ARM.Collect$$libinit$$0000002C)
    .ARM.Collect$$libinit$$0000002E          0x08000266   Section        0  libinit2.o(.ARM.Collect$$libinit$$0000002E)
    .ARM.Collect$$libinit$$00000030          0x08000266   Section        0  libinit2.o(.ARM.Collect$$libinit$$00000030)
    .ARM.Collect$$libinit$$00000032          0x08000266   Section        0  libinit2.o(.ARM.Collect$$libinit$$00000032)
    .ARM.Collect$$libinit$$00000033          0x08000266   Section        2  libinit2.o(.ARM.Collect$$libinit$$00000033)
    .ARM.Collect$$libshutdown$$00000000      0x08000268   Section        2  libshutdown.o(.ARM.Collect$$libshutdown$$00000000)
    .ARM.Collect$$libshutdown$$00000002      0x0800026a   Section        0  libshutdown2.o(.ARM.Collect$$libshutdown$$00000002)
    .ARM.Collect$$libshutdown$$00000004      0x0800026a   Section        0  libshutdown2.o(.ARM.Collect$$libshutdown$$00000004)
    .ARM.Collect$$libshutdown$$00000007      0x0800026a   Section        0  libshutdown2.o(.ARM.Collect$$libshutdown$$00000007)
    .ARM.Collect$$libshutdown$$0000000A      0x0800026a   Section        0  libshutdown2.o(.ARM.Collect$$libshutdown$$0000000A)
    .ARM.Collect$$libshutdown$$0000000C      0x0800026a   Section        0  libshutdown2.o(.ARM.Collect$$libshutdown$$0000000C)
    .ARM.Collect$$libshutdown$$0000000F      0x0800026a   Section        0  libshutdown2.o(.ARM.Collect$$libshutdown$$0000000F)
    .ARM.Collect$$libshutdown$$00000010      0x0800026a   Section        2  libshutdown2.o(.ARM.Collect$$libshutdown$$00000010)
    .ARM.Collect$$rtentry$$00000000          0x0800026c   Section        0  __rtentry.o(.ARM.Collect$$rtentry$$00000000)
    .ARM.Collect$$rtentry$$00000002          0x0800026c   Section        0  __rtentry2.o(.ARM.Collect$$rtentry$$00000002)
    .ARM.Collect$$rtentry$$00000004          0x0800026c   Section        6  __rtentry4.o(.ARM.Collect$$rtentry$$00000004)
    .ARM.Collect$$rtentry$$00000009          0x08000272   Section        0  __rtentry2.o(.ARM.Collect$$rtentry$$00000009)
    .ARM.Collect$$rtentry$$0000000A          0x08000272   Section        4  __rtentry2.o(.ARM.Collect$$rtentry$$0000000A)
    .ARM.Collect$$rtentry$$0000000C          0x08000276   Section        0  __rtentry2.o(.ARM.Collect$$rtentry$$0000000C)
    .ARM.Collect$$rtentry$$0000000D          0x08000276   Section        8  __rtentry2.o(.ARM.Collect$$rtentry$$0000000D)
    .ARM.Collect$$rtexit$$00000000           0x0800027e   Section        2  rtexit.o(.ARM.Collect$$rtexit$$00000000)
    .ARM.Collect$$rtexit$$00000002           0x08000280   Section        0  rtexit2.o(.ARM.Collect$$rtexit$$00000002)
    .ARM.Collect$$rtexit$$00000003           0x08000280   Section        4  rtexit2.o(.ARM.Collect$$rtexit$$00000003)
    .ARM.Collect$$rtexit$$00000004           0x08000284   Section        6  rtexit2.o(.ARM.Collect$$rtexit$$00000004)
    .emb_text                                0x0800028c   Section      182  port.o(.emb_text)
    $v0                                      0x0800028c   Number         0  port.o(.emb_text)
    .text                                    0x08000344   Section       64  startup_stm32f427x.o(.text)
    $v0                                      0x08000344   Number         0  startup_stm32f427x.o(.text)
    .text                                    0x08000384   Section      138  rt_memcpy_v6.o(.text)
    .text                                    0x0800040e   Section      100  rt_memcpy_w.o(.text)
    .text                                    0x08000472   Section       16  aeabi_memset.o(.text)
    .text                                    0x08000482   Section       78  rt_memclr_w.o(.text)
    .text                                    0x080004d0   Section        0  heapauxi.o(.text)
    .text                                    0x080004d6   Section        0  _rserrno.o(.text)
    .text                                    0x080004ec   Section       68  rt_memclr.o(.text)
    .text                                    0x08000530   Section        8  rt_errno_addr_intlibspace.o(.text)
    .text                                    0x08000538   Section        8  libspace.o(.text)
    .text                                    0x08000540   Section       74  sys_stackheap_outer.o(.text)
    .text                                    0x0800058a   Section        0  exit.o(.text)
    .text                                    0x0800059c   Section        2  use_no_semi.o(.text)
    .text                                    0x0800059e   Section        0  indicate_semi.o(.text)
    .text                                    0x080005a0   Section        0  sys_exit.o(.text)
    i.BSP_Init                               0x080005ac   Section        0  main.o(i.BSP_Init)
    i.BusFault_Handler                       0x080005c4   Section        0  stm32f4xx_it.o(i.BusFault_Handler)
    i.CAN1_RX0_IRQHandler                    0x080005c8   Section        0  it.o(i.CAN1_RX0_IRQHandler)
    i.CAN1_TX_IRQHandler                     0x08000604   Section        0  it.o(i.CAN1_TX_IRQHandler)
    i.CAN2_RX0_IRQHandler                    0x08000620   Section        0  it.o(i.CAN2_RX0_IRQHandler)
    i.CAN2_TX_IRQHandler                     0x0800065c   Section        0  it.o(i.CAN2_TX_IRQHandler)
    i.CAN_ClearFlag                          0x08000678   Section        0  stm32f4xx_can.o(i.CAN_ClearFlag)
    i.CAN_ClearITPendingBit                  0x080006b0   Section        0  stm32f4xx_can.o(i.CAN_ClearITPendingBit)
    i.CAN_DeInit                             0x08000758   Section        0  stm32f4xx_can.o(i.CAN_DeInit)
    i.CAN_FilterInit                         0x08000790   Section        0  stm32f4xx_can.o(i.CAN_FilterInit)
    i.CAN_GetITStatus                        0x08000898   Section        0  stm32f4xx_can.o(i.CAN_GetITStatus)
    i.CAN_ITConfig                           0x080009b8   Section        0  stm32f4xx_can.o(i.CAN_ITConfig)
    i.CAN_Init                               0x080009ca   Section        0  stm32f4xx_can.o(i.CAN_Init)
    i.CAN_Receive                            0x08000ade   Section        0  stm32f4xx_can.o(i.CAN_Receive)
    i.CAN_StructInit                         0x08000bce   Section        0  stm32f4xx_can.o(i.CAN_StructInit)
    i.Chassis_Control                        0x08000bf0   Section        0  chassis_behavior.o(i.Chassis_Control)
    i.Chassis_SetMode                        0x08000d24   Section        0  chassis_behavior.o(i.Chassis_SetMode)
    Chassis_SetMode                          0x08000d25   Thumb Code   248  chassis_behavior.o(i.Chassis_SetMode)
    i.CheckITStatus                          0x08000e3c   Section        0  stm32f4xx_can.o(i.CheckITStatus)
    CheckITStatus                            0x08000e3d   Thumb Code    18  stm32f4xx_can.o(i.CheckITStatus)
    i.DMA1_Stream6_IRQHandler                0x08000e50   Section        0  vofa.o(i.DMA1_Stream6_IRQHandler)
    i.DMA_ClearFlag                          0x08000e78   Section        0  stm32f4xx_dma.o(i.DMA_ClearFlag)
    i.DMA_ClearITPendingBit                  0x08000eac   Section        0  stm32f4xx_dma.o(i.DMA_ClearITPendingBit)
    i.DMA_Cmd                                0x08000ee0   Section        0  stm32f4xx_dma.o(i.DMA_Cmd)
    i.DMA_DeInit                             0x08000ef8   Section        0  stm32f4xx_dma.o(i.DMA_DeInit)
    i.DMA_DoubleBufferModeCmd                0x08001050   Section        0  stm32f4xx_dma.o(i.DMA_DoubleBufferModeCmd)
    i.DMA_DoubleBufferModeConfig             0x08001066   Section        0  stm32f4xx_dma.o(i.DMA_DoubleBufferModeConfig)
    i.DMA_GetCmdStatus                       0x0800107e   Section        0  stm32f4xx_dma.o(i.DMA_GetCmdStatus)
    i.DMA_GetCurrDataCounter                 0x08001092   Section        0  stm32f4xx_dma.o(i.DMA_GetCurrDataCounter)
    i.DMA_GetCurrentMemoryTarget             0x0800109a   Section        0  stm32f4xx_dma.o(i.DMA_GetCurrentMemoryTarget)
    i.DMA_GetITStatus                        0x080010b0   Section        0  stm32f4xx_dma.o(i.DMA_GetITStatus)
    i.DMA_Init                               0x08001114   Section        0  stm32f4xx_dma.o(i.DMA_Init)
    i.DMA_SetCurrDataCounter                 0x0800116c   Section        0  stm32f4xx_dma.o(i.DMA_SetCurrDataCounter)
    i.DMA_StructInit                         0x08001170   Section        0  stm32f4xx_dma.o(i.DMA_StructInit)
    i.DebugMon_Handler                       0x08001192   Section        0  stm32f4xx_it.o(i.DebugMon_Handler)
    i.GPIO_Init                              0x08001194   Section        0  stm32f4xx_gpio.o(i.GPIO_Init)
    i.GPIO_PinAFConfig                       0x08001224   Section        0  stm32f4xx_gpio.o(i.GPIO_PinAFConfig)
    i.GPIO_ResetBits                         0x0800126a   Section        0  stm32f4xx_gpio.o(i.GPIO_ResetBits)
    i.GPIO_SetBits                           0x0800126e   Section        0  stm32f4xx_gpio.o(i.GPIO_SetBits)
    i.Get_CRC16_Check_Sum                    0x08001274   Section        0  crc_check.o(i.Get_CRC16_Check_Sum)
    Get_CRC16_Check_Sum                      0x08001275   Thumb Code    46  crc_check.o(i.Get_CRC16_Check_Sum)
    i.Get_CRC8_Check_Sum                     0x080012a8   Section        0  crc_check.o(i.Get_CRC8_Check_Sum)
    Get_CRC8_Check_Sum                       0x080012a9   Thumb Code    30  crc_check.o(i.Get_CRC8_Check_Sum)
    i.HardFault_Handler                      0x080012cc   Section        0  stm32f4xx_it.o(i.HardFault_Handler)
    i.Hardware_Init                          0x080012d0   Section        0  main.o(i.Hardware_Init)
    i.MemManage_Handler                      0x080012e0   Section        0  stm32f4xx_it.o(i.MemManage_Handler)
    i.NMI_Handler                            0x080012e4   Section        0  stm32f4xx_it.o(i.NMI_Handler)
    i.NVIC_Init                              0x080012e8   Section        0  misc.o(i.NVIC_Init)
    i.NVIC_PriorityGroupConfig               0x08001360   Section        0  misc.o(i.NVIC_PriorityGroupConfig)
    i.OnDataReceived                         0x08001374   Section        0  imu_data_decode.o(i.OnDataReceived)
    OnDataReceived                           0x08001375   Thumb Code   348  imu_data_decode.o(i.OnDataReceived)
    i.Packet_Decode                          0x080014ec   Section        0  packet.o(i.Packet_Decode)
    i.Packet_DecodeInit                      0x08001690   Section        0  packet.o(i.Packet_DecodeInit)
    i.RCC_AHB1PeriphClockCmd                 0x080016b0   Section        0  stm32f4xx_rcc.o(i.RCC_AHB1PeriphClockCmd)
    i.RCC_APB1PeriphClockCmd                 0x080016d0   Section        0  stm32f4xx_rcc.o(i.RCC_APB1PeriphClockCmd)
    i.RCC_APB1PeriphResetCmd                 0x080016f0   Section        0  stm32f4xx_rcc.o(i.RCC_APB1PeriphResetCmd)
    i.RCC_APB2PeriphClockCmd                 0x08001710   Section        0  stm32f4xx_rcc.o(i.RCC_APB2PeriphClockCmd)
    i.RCC_APB2PeriphResetCmd                 0x08001730   Section        0  stm32f4xx_rcc.o(i.RCC_APB2PeriphResetCmd)
    i.RCC_GetClocksFreq                      0x08001750   Section        0  stm32f4xx_rcc.o(i.RCC_GetClocksFreq)
    i.RM_Judge_DataDecodeByBuff              0x08001838   Section        0  judge.o(i.RM_Judge_DataDecodeByBuff)
    i.RM_Judge_DataDequeue                   0x08001aac   Section        0  judge.o(i.RM_Judge_DataDequeue)
    i.RM_Judge_DataEnqueue                   0x08001ae6   Section        0  judge.o(i.RM_Judge_DataEnqueue)
    i.RM_Judge_DataLength                    0x08001b06   Section        0  judge.o(i.RM_Judge_DataLength)
    i.RM_Judge_FindFrame                     0x08001cea   Section        0  judge.o(i.RM_Judge_FindFrame)
    i.SetSysClock                            0x08001db0   Section        0  system_stm32f4xx.o(i.SetSysClock)
    SetSysClock                              0x08001db1   Thumb Code   220  system_stm32f4xx.o(i.SetSysClock)
    i.Start_Task                             0x08001e9c   Section        0  user_task.o(i.Start_Task)
    i.SysTick_Handler                        0x08002020   Section        0  port.o(i.SysTick_Handler)
    i.SystemInit                             0x08002054   Section        0  system_stm32f4xx.o(i.SystemInit)
    i.Task_ChassisCtrl                       0x080020bc   Section        0  chassis_behavior.o(i.Task_ChassisCtrl)
    i.Task_Hi219mDataDecode                  0x080022a4   Section        0  user_task.o(i.Task_Hi219mDataDecode)
    i.Task_Init                              0x08002300   Section        0  user_task.o(i.Task_Init)
    i.Task_JudgeDataDecode                   0x0800232c   Section        0  user_task.o(i.Task_JudgeDataDecode)
    i.Task_MiniPCDataDecode                  0x08002364   Section        0  minipc.o(i.Task_MiniPCDataDecode)
    i.Task_MiniPCDataSend                    0x08002376   Section        0  minipc.o(i.Task_MiniPCDataSend)
    i.Task_Send2Gimbal                       0x08002388   Section        0  user_task.o(i.Task_Send2Gimbal)
    i.UART7_IRQHandler                       0x0800239a   Section        0  it.o(i.UART7_IRQHandler)
    i.UART8_IRQHandler                       0x0800239c   Section        0  it.o(i.UART8_IRQHandler)
    i.USART1_IRQHandler                      0x080023a0   Section        0  it.o(i.USART1_IRQHandler)
    i.USART3_IRQHandler                      0x08002460   Section        0  it.o(i.USART3_IRQHandler)
    i.USART6_IRQHandler                      0x08002464   Section        0  it.o(i.USART6_IRQHandler)
    i.USART_Cmd                              0x08002518   Section        0  stm32f4xx_usart.o(i.USART_Cmd)
    i.USART_DMACmd                           0x08002530   Section        0  stm32f4xx_usart.o(i.USART_DMACmd)
    i.USART_DeInit                           0x08002544   Section        0  stm32f4xx_usart.o(i.USART_DeInit)
    i.USART_GetITStatus                      0x08002634   Section        0  stm32f4xx_usart.o(i.USART_GetITStatus)
    i.USART_ITConfig                         0x08002688   Section        0  stm32f4xx_usart.o(i.USART_ITConfig)
    i.USART_Init                             0x080026d4   Section        0  stm32f4xx_usart.o(i.USART_Init)
    i.USART_StructInit                       0x080027a8   Section        0  stm32f4xx_usart.o(i.USART_StructInit)
    i.UsageFault_Handler                     0x080027c0   Section        0  stm32f4xx_it.o(i.UsageFault_Handler)
    i.Verify_CRC16_Check_Sum                 0x080027c4   Section        0  crc_check.o(i.Verify_CRC16_Check_Sum)
    i.Verify_CRC8_Check_Sum                  0x08002804   Section        0  crc_check.o(i.Verify_CRC8_Check_Sum)
    i.__ARM_fpclassify                       0x08002832   Section        0  fpclassify.o(i.__ARM_fpclassify)
    i.__hardfp_atan                          0x08002868   Section        0  atan.o(i.__hardfp_atan)
    i.__hardfp_atan2                         0x08002b40   Section        0  atan2.o(i.__hardfp_atan2)
    i.__hardfp_fmod                          0x08002d30   Section        0  fmod.o(i.__hardfp_fmod)
    i.__kernel_poly                          0x08002e34   Section        0  poly.o(i.__kernel_poly)
    i.__mathlib_dbl_infnan                   0x08002f2c   Section        0  dunder.o(i.__mathlib_dbl_infnan)
    i.__mathlib_dbl_infnan2                  0x08002f40   Section        0  dunder.o(i.__mathlib_dbl_infnan2)
    i.__mathlib_dbl_invalid                  0x08002f58   Section        0  dunder.o(i.__mathlib_dbl_invalid)
    i.__mathlib_dbl_underflow                0x08002f78   Section        0  dunder.o(i.__mathlib_dbl_underflow)
    i.appendValue                            0x08002f98   Section        0  arraylist.o(i.appendValue)
    i.atan                                   0x08002fba   Section        0  atan.o(i.atan)
    i.configCAN_Init                         0x08002fcc   Section        0  can.o(i.configCAN_Init)
    i.configChassis_ParaInit                 0x08003110   Section        0  chassis_behavior.o(i.configChassis_ParaInit)
    i.configDMA_Init                         0x08003138   Section        0  dma.o(i.configDMA_Init)
    i.configHi219m_ParaInit                  0x08003314   Section        0  hi219m.o(i.configHi219m_ParaInit)
    i.configIO_Init                          0x0800331c   Section        0  io.o(i.configIO_Init)
    i.configNVIC_Init                        0x080036a0   Section        0  nvic.o(i.configNVIC_Init)
    i.configUART_Init                        0x080037f0   Section        0  uart.o(i.configUART_Init)
    i.configVOFA_ParaInit                    0x08003a44   Section        0  vofa.o(i.configVOFA_ParaInit)
    i.crc16_update                           0x08003a5c   Section        0  packet.o(i.crc16_update)
    crc16_update                             0x08003a5d   Thumb Code    60  packet.o(i.crc16_update)
    i.deleteAllValue                         0x08003a98   Section        0  arraylist.o(i.deleteAllValue)
    i.deleteRangeValue                       0x08003aba   Section        0  arraylist.o(i.deleteRangeValue)
    i.deleteValue                            0x08003af4   Section        0  arraylist.o(i.deleteValue)
    i.fabs                                   0x08003b3c   Section        0  fabs.o(i.fabs)
    i.findValue                              0x08003b54   Section        0  arraylist.o(i.findValue)
    i.fnHi219m_DataDecode                    0x08003b88   Section        0  hi219m.o(i.fnHi219m_DataDecode)
    i.fnMotor_CanRecvDataDecode              0x08003de8   Section        0  motor.o(i.fnMotor_CanRecvDataDecode)
    i.fnRemote_RawDataDecode                 0x08003e84   Section        0  rm_remote.o(i.fnRemote_RawDataDecode)
    i.getArrayLength                         0x08003f88   Section        0  arraylist.o(i.getArrayLength)
    i.getValue                               0x08003f8e   Section        0  arraylist.o(i.getValue)
    i.get_eular                              0x08003fac   Section        0  imu_data_decode.o(i.get_eular)
    i.get_raw_gyo                            0x08003fc0   Section        0  imu_data_decode.o(i.get_raw_gyo)
    i.get_raw_mag                            0x08003fd4   Section        0  imu_data_decode.o(i.get_raw_mag)
    i.imu_data_decode_init                   0x08003fe8   Section        0  imu_data_decode.o(i.imu_data_decode_init)
    i.isEmpty                                0x08004000   Section        0  arraylist.o(i.isEmpty)
    i.isFull                                 0x0800400e   Section        0  arraylist.o(i.isFull)
    i.main                                   0x08004020   Section        0  main.o(i.main)
    i.prvAddCurrentTaskToDelayedList         0x08004034   Section        0  tasks.o(i.prvAddCurrentTaskToDelayedList)
    prvAddCurrentTaskToDelayedList           0x08004035   Thumb Code   124  tasks.o(i.prvAddCurrentTaskToDelayedList)
    i.prvAddNewTaskToReadyList               0x080040cc   Section        0  tasks.o(i.prvAddNewTaskToReadyList)
    prvAddNewTaskToReadyList                 0x080040cd   Thumb Code   150  tasks.o(i.prvAddNewTaskToReadyList)
    i.prvCheckForValidListAndQueue           0x08004180   Section        0  timers.o(i.prvCheckForValidListAndQueue)
    prvCheckForValidListAndQueue             0x08004181   Thumb Code    72  timers.o(i.prvCheckForValidListAndQueue)
    i.prvCheckTasksWaitingTermination        0x080041e4   Section        0  tasks.o(i.prvCheckTasksWaitingTermination)
    prvCheckTasksWaitingTermination          0x080041e5   Thumb Code    86  tasks.o(i.prvCheckTasksWaitingTermination)
    i.prvCopyDataFromQueue                   0x08004248   Section        0  queue.o(i.prvCopyDataFromQueue)
    prvCopyDataFromQueue                     0x08004249   Thumb Code    42  queue.o(i.prvCopyDataFromQueue)
    i.prvCopyDataToQueue                     0x08004272   Section        0  queue.o(i.prvCopyDataToQueue)
    prvCopyDataToQueue                       0x08004273   Thumb Code   124  queue.o(i.prvCopyDataToQueue)
    i.prvDeleteTCB                           0x080042ee   Section        0  tasks.o(i.prvDeleteTCB)
    prvDeleteTCB                             0x080042ef   Thumb Code    18  tasks.o(i.prvDeleteTCB)
    i.prvGetNextExpireTime                   0x08004300   Section        0  timers.o(i.prvGetNextExpireTime)
    prvGetNextExpireTime                     0x08004301   Thumb Code    36  timers.o(i.prvGetNextExpireTime)
    i.prvHeapInit                            0x08004328   Section        0  heap_4.o(i.prvHeapInit)
    prvHeapInit                              0x08004329   Thumb Code    98  heap_4.o(i.prvHeapInit)
    i.prvIdleTask                            0x080043a4   Section        0  tasks.o(i.prvIdleTask)
    prvIdleTask                              0x080043a5   Thumb Code    36  tasks.o(i.prvIdleTask)
    i.prvInitialiseNewQueue                  0x080043d0   Section        0  queue.o(i.prvInitialiseNewQueue)
    prvInitialiseNewQueue                    0x080043d1   Thumb Code    38  queue.o(i.prvInitialiseNewQueue)
    i.prvInitialiseNewTask                   0x080043f6   Section        0  tasks.o(i.prvInitialiseNewTask)
    prvInitialiseNewTask                     0x080043f7   Thumb Code   180  tasks.o(i.prvInitialiseNewTask)
    i.prvInitialiseTaskLists                 0x080044ac   Section        0  tasks.o(i.prvInitialiseTaskLists)
    prvInitialiseTaskLists                   0x080044ad   Thumb Code    70  tasks.o(i.prvInitialiseTaskLists)
    i.prvInsertBlockIntoFreeList             0x08004514   Section        0  heap_4.o(i.prvInsertBlockIntoFreeList)
    prvInsertBlockIntoFreeList               0x08004515   Thumb Code    96  heap_4.o(i.prvInsertBlockIntoFreeList)
    i.prvInsertTimerInActiveList             0x0800457c   Section        0  timers.o(i.prvInsertTimerInActiveList)
    prvInsertTimerInActiveList               0x0800457d   Thumb Code    80  timers.o(i.prvInsertTimerInActiveList)
    i.prvIsQueueEmpty                        0x080045d4   Section        0  queue.o(i.prvIsQueueEmpty)
    prvIsQueueEmpty                          0x080045d5   Thumb Code    26  queue.o(i.prvIsQueueEmpty)
    i.prvIsQueueFull                         0x080045ee   Section        0  queue.o(i.prvIsQueueFull)
    prvIsQueueFull                           0x080045ef   Thumb Code    30  queue.o(i.prvIsQueueFull)
    i.prvProcessExpiredTimer                 0x0800460c   Section        0  timers.o(i.prvProcessExpiredTimer)
    prvProcessExpiredTimer                   0x0800460d   Thumb Code    94  timers.o(i.prvProcessExpiredTimer)
    i.prvProcessReceivedCommands             0x08004670   Section        0  timers.o(i.prvProcessReceivedCommands)
    prvProcessReceivedCommands               0x08004671   Thumb Code   242  timers.o(i.prvProcessReceivedCommands)
    i.prvProcessTimerOrBlockTask             0x08004768   Section        0  timers.o(i.prvProcessTimerOrBlockTask)
    prvProcessTimerOrBlockTask               0x08004769   Thumb Code   102  timers.o(i.prvProcessTimerOrBlockTask)
    i.prvResetNextTaskUnblockTime            0x080047dc   Section        0  tasks.o(i.prvResetNextTaskUnblockTime)
    prvResetNextTaskUnblockTime              0x080047dd   Thumb Code    42  tasks.o(i.prvResetNextTaskUnblockTime)
    i.prvSampleTimeNow                       0x08004810   Section        0  timers.o(i.prvSampleTimeNow)
    prvSampleTimeNow                         0x08004811   Thumb Code    40  timers.o(i.prvSampleTimeNow)
    i.prvSwitchTimerLists                    0x0800483c   Section        0  timers.o(i.prvSwitchTimerLists)
    prvSwitchTimerLists                      0x0800483d   Thumb Code   150  timers.o(i.prvSwitchTimerLists)
    i.prvTaskExitError                       0x080048dc   Section        0  port.o(i.prvTaskExitError)
    prvTaskExitError                         0x080048dd   Thumb Code    60  port.o(i.prvTaskExitError)
    i.prvTimerTask                           0x0800491c   Section        0  timers.o(i.prvTimerTask)
    prvTimerTask                             0x0800491d   Thumb Code    26  timers.o(i.prvTimerTask)
    i.prvUnlockQueue                         0x08004936   Section        0  queue.o(i.prvUnlockQueue)
    prvUnlockQueue                           0x08004937   Thumb Code   126  queue.o(i.prvUnlockQueue)
    i.pvPortMalloc                           0x080049b4   Section        0  heap_4.o(i.pvPortMalloc)
    i.pvTaskIncrementMutexHeldCount          0x08004afc   Section        0  tasks.o(i.pvTaskIncrementMutexHeldCount)
    i.pxPortInitialiseStack                  0x08004b1c   Section        0  port.o(i.pxPortInitialiseStack)
    i.s_fnM3508_RawDataDecode                0x08004b48   Section        0  motor.o(i.s_fnM3508_RawDataDecode)
    s_fnM3508_RawDataDecode                  0x08004b49   Thumb Code   112  motor.o(i.s_fnM3508_RawDataDecode)
    i.s_fnM6020_RawDataDecode                0x08004bb8   Section        0  motor.o(i.s_fnM6020_RawDataDecode)
    s_fnM6020_RawDataDecode                  0x08004bb9   Thumb Code   268  motor.o(i.s_fnM6020_RawDataDecode)
    i.uxListRemove                           0x08004cd8   Section        0  list.o(i.uxListRemove)
    i.vApplicationIdleHook                   0x08004d00   Section        0  stm32f4xx_it.o(i.vApplicationIdleHook)
    i.vApplicationMallocFailedHook           0x08004d02   Section        0  stm32f4xx_it.o(i.vApplicationMallocFailedHook)
    i.vApplicationStackOverflowHook          0x08004d18   Section        0  stm32f4xx_it.o(i.vApplicationStackOverflowHook)
    i.vApplicationTickHook                   0x08004d1a   Section        0  stm32f4xx_it.o(i.vApplicationTickHook)
    i.vListInitialise                        0x08004d1c   Section        0  list.o(i.vListInitialise)
    i.vListInitialiseItem                    0x08004d36   Section        0  list.o(i.vListInitialiseItem)
    i.vListInsert                            0x08004d3c   Section        0  list.o(i.vListInsert)
    i.vListInsertEnd                         0x08004d70   Section        0  list.o(i.vListInsertEnd)
    i.vPortEnterCritical                     0x08004d88   Section        0  port.o(i.vPortEnterCritical)
    i.vPortExitCritical                      0x08004ddc   Section        0  port.o(i.vPortExitCritical)
    i.vPortFree                              0x08004e18   Section        0  heap_4.o(i.vPortFree)
    i.vPortSetupTimerInterrupt               0x08004eac   Section        0  port.o(i.vPortSetupTimerInterrupt)
    i.vPortValidateInterruptPriority         0x08004ec0   Section        0  port.o(i.vPortValidateInterruptPriority)
    i.vQueueAddToRegistry                    0x08004f38   Section        0  queue.o(i.vQueueAddToRegistry)
    i.vQueueWaitForMessageRestricted         0x08004f64   Section        0  queue.o(i.vQueueWaitForMessageRestricted)
    i.vTaskDelay                             0x08004fb0   Section        0  tasks.o(i.vTaskDelay)
    i.vTaskDelayUntil                        0x0800500c   Section        0  tasks.o(i.vTaskDelayUntil)
    i.vTaskDelete                            0x080050e0   Section        0  tasks.o(i.vTaskDelete)
    i.vTaskMissedYield                       0x080051d4   Section        0  tasks.o(i.vTaskMissedYield)
    i.vTaskPlaceOnEventList                  0x080051e0   Section        0  tasks.o(i.vTaskPlaceOnEventList)
    i.vTaskPlaceOnEventListRestricted        0x08005218   Section        0  tasks.o(i.vTaskPlaceOnEventListRestricted)
    i.vTaskPriorityInherit                   0x08005258   Section        0  tasks.o(i.vTaskPriorityInherit)
    i.vTaskSetTimeOutState                   0x08005308   Section        0  tasks.o(i.vTaskSetTimeOutState)
    i.vTaskStartScheduler                    0x08005338   Section        0  tasks.o(i.vTaskStartScheduler)
    i.vTaskSuspendAll                        0x080053cc   Section        0  tasks.o(i.vTaskSuspendAll)
    i.vTaskSwitchContext                     0x080053dc   Section        0  tasks.o(i.vTaskSwitchContext)
    i.xPortStartScheduler                    0x080054a0   Section        0  port.o(i.xPortStartScheduler)
    i.xQueueGenericCreate                    0x080055dc   Section        0  queue.o(i.xQueueGenericCreate)
    i.xQueueGenericReceive                   0x08005634   Section        0  queue.o(i.xQueueGenericReceive)
    i.xQueueGenericReset                     0x080057f8   Section        0  queue.o(i.xQueueGenericReset)
    i.xQueueGenericSend                      0x08005890   Section        0  queue.o(i.xQueueGenericSend)
    i.xQueueGenericSendFromISR               0x08005a38   Section        0  queue.o(i.xQueueGenericSendFromISR)
    i.xQueueGiveFromISR                      0x08005b30   Section        0  queue.o(i.xQueueGiveFromISR)
    i.xTaskCheckForTimeOut                   0x08005c10   Section        0  tasks.o(i.xTaskCheckForTimeOut)
    i.xTaskCreate                            0x08005c9c   Section        0  tasks.o(i.xTaskCreate)
    i.xTaskGetSchedulerState                 0x08005cfc   Section        0  tasks.o(i.xTaskGetSchedulerState)
    i.xTaskGetTickCount                      0x08005d1c   Section        0  tasks.o(i.xTaskGetTickCount)
    i.xTaskIncrementTick                     0x08005d28   Section        0  tasks.o(i.xTaskIncrementTick)
    i.xTaskPriorityDisinherit                0x08005e7c   Section        0  tasks.o(i.xTaskPriorityDisinherit)
    i.xTaskRemoveFromEventList               0x08005f44   Section        0  tasks.o(i.xTaskRemoveFromEventList)
    i.xTaskResumeAll                         0x08005fdc   Section        0  tasks.o(i.xTaskResumeAll)
    i.xTimerCreateTimerTask                  0x080060e0   Section        0  timers.o(i.xTimerCreateTimerTask)
    i.xTimerGenericCommand                   0x08006138   Section        0  timers.o(i.xTimerGenericCommand)
    x$fpl$basic                              0x080061bc   Section       24  basic.o(x$fpl$basic)
    $v0                                      0x080061bc   Number         0  basic.o(x$fpl$basic)
    x$fpl$d2f                                0x080061d4   Section       98  d2f.o(x$fpl$d2f)
    $v0                                      0x080061d4   Number         0  d2f.o(x$fpl$d2f)
    x$fpl$dadd                               0x08006238   Section      336  daddsub_clz.o(x$fpl$dadd)
    $v0                                      0x08006238   Number         0  daddsub_clz.o(x$fpl$dadd)
    _dadd1                                   0x08006249   Thumb Code     0  daddsub_clz.o(x$fpl$dadd)
    x$fpl$ddiv                               0x08006388   Section      688  ddiv.o(x$fpl$ddiv)
    $v0                                      0x08006388   Number         0  ddiv.o(x$fpl$ddiv)
    ddiv_entry                               0x0800638f   Thumb Code     0  ddiv.o(x$fpl$ddiv)
    x$fpl$dmul                               0x08006638   Section      340  dmul.o(x$fpl$dmul)
    $v0                                      0x08006638   Number         0  dmul.o(x$fpl$dmul)
    x$fpl$dnaninf                            0x0800678c   Section      156  dnaninf.o(x$fpl$dnaninf)
    $v0                                      0x0800678c   Number         0  dnaninf.o(x$fpl$dnaninf)
    x$fpl$drem                               0x08006828   Section      336  drem_clz.o(x$fpl$drem)
    $v0                                      0x08006828   Number         0  drem_clz.o(x$fpl$drem)
    x$fpl$dretinf                            0x08006978   Section       12  dretinf.o(x$fpl$dretinf)
    $v0                                      0x08006978   Number         0  dretinf.o(x$fpl$dretinf)
    x$fpl$drsb                               0x08006984   Section       22  daddsub_clz.o(x$fpl$drsb)
    $v0                                      0x08006984   Number         0  daddsub_clz.o(x$fpl$drsb)
    x$fpl$dsub                               0x0800699c   Section      468  daddsub_clz.o(x$fpl$dsub)
    $v0                                      0x0800699c   Number         0  daddsub_clz.o(x$fpl$dsub)
    _dsub1                                   0x080069ad   Thumb Code     0  daddsub_clz.o(x$fpl$dsub)
    x$fpl$f2d                                0x08006b70   Section       86  f2d.o(x$fpl$f2d)
    $v0                                      0x08006b70   Number         0  f2d.o(x$fpl$f2d)
    x$fpl$fnaninf                            0x08006bc6   Section      140  fnaninf.o(x$fpl$fnaninf)
    $v0                                      0x08006bc6   Number         0  fnaninf.o(x$fpl$fnaninf)
    x$fpl$fpinit                             0x08006c52   Section       10  fpinit.o(x$fpl$fpinit)
    $v0                                      0x08006c52   Number         0  fpinit.o(x$fpl$fpinit)
    x$fpl$fretinf                            0x08006c5c   Section       10  fretinf.o(x$fpl$fretinf)
    $v0                                      0x08006c5c   Number         0  fretinf.o(x$fpl$fretinf)
    .constdata                               0x08006c66   Section      770  crc_check.o(.constdata)
    x$fpl$usenofp                            0x08006c66   Section        0  usenofp.o(x$fpl$usenofp)
    .constdata                               0x08006f68   Section      152  atan.o(.constdata)
    atanhi                                   0x08006f68   Data          32  atan.o(.constdata)
    atanlo                                   0x08006f88   Data          32  atan.o(.constdata)
    aTodd                                    0x08006fa8   Data          40  atan.o(.constdata)
    aTeven                                   0x08006fd0   Data          48  atan.o(.constdata)
    .constdata                               0x08007000   Section        8  qnan.o(.constdata)
    .data                                    0x20000000   Section        8  it.o(.data)
    rx_len                                   0x20000004   Data           4  it.o(.data)
    .data                                    0x20000008   Section     1568  motor.o(.data)
    init_time                                0x20000626   Data           2  motor.o(.data)
    .data                                    0x20000628   Section        1  rm_remote.o(.data)
    .data                                    0x2000062c   Section       12  hi219m.o(.data)
    .data                                    0x20000638   Section       19  imu_data_decode.o(.data)
    acc                                      0x20000638   Data           6  imu_data_decode.o(.data)
    gyo                                      0x2000063e   Data           6  imu_data_decode.o(.data)
    mag                                      0x20000644   Data           6  imu_data_decode.o(.data)
    id                                       0x2000064a   Data           1  imu_data_decode.o(.data)
    .data                                    0x2000064c   Section       17  packet.o(.data)
    EventHandler                             0x2000064c   Data           4  packet.o(.data)
    RxPkt                                    0x20000650   Data           4  packet.o(.data)
    CRCReceived                              0x20000654   Data           2  packet.o(.data)
    CRCCalculated                            0x20000656   Data           2  packet.o(.data)
    status                                   0x20000658   Data           1  packet.o(.data)
    crc_header                               0x20000659   Data           4  packet.o(.data)
    .data                                    0x20000660   Section       72  chassis_behavior.o(.data)
    chassis_rudder_angle                     0x20000690   Data           8  chassis_behavior.o(.data)
    chassis_rudder_crtangle                  0x20000698   Data           8  chassis_behavior.o(.data)
    chassis_rudder_cvtangle                  0x200006a0   Data           8  chassis_behavior.o(.data)
    .data                                    0x200006a8   Section       40  user_task.o(.data)
    .data                                    0x200006d0   Section        2  crc_check.o(.data)
    .data                                    0x200006d2   Section        7  judge.o(.data)
    t                                        0x200006d8   Data           1  judge.o(.data)
    .data                                    0x200006d9   Section       16  stm32f4xx_rcc.o(.data)
    APBAHBPrescTable                         0x200006d9   Data          16  stm32f4xx_rcc.o(.data)
    .data                                    0x200006ec   Section       60  tasks.o(.data)
    pxDelayedTaskList                        0x200006f0   Data           4  tasks.o(.data)
    pxOverflowDelayedTaskList                0x200006f4   Data           4  tasks.o(.data)
    uxDeletedTasksWaitingCleanUp             0x200006f8   Data           4  tasks.o(.data)
    uxCurrentNumberOfTasks                   0x200006fc   Data           4  tasks.o(.data)
    xTickCount                               0x20000700   Data           4  tasks.o(.data)
    uxTopReadyPriority                       0x20000704   Data           4  tasks.o(.data)
    xSchedulerRunning                        0x20000708   Data           4  tasks.o(.data)
    uxPendedTicks                            0x2000070c   Data           4  tasks.o(.data)
    xYieldPending                            0x20000710   Data           4  tasks.o(.data)
    xNumOfOverflows                          0x20000714   Data           4  tasks.o(.data)
    uxTaskNumber                             0x20000718   Data           4  tasks.o(.data)
    xNextTaskUnblockTime                     0x2000071c   Data           4  tasks.o(.data)
    xIdleTaskHandle                          0x20000720   Data           4  tasks.o(.data)
    uxSchedulerSuspended                     0x20000724   Data           4  tasks.o(.data)
    .data                                    0x20000728   Section       20  timers.o(.data)
    pxCurrentTimerList                       0x20000728   Data           4  timers.o(.data)
    pxOverflowTimerList                      0x2000072c   Data           4  timers.o(.data)
    xTimerQueue                              0x20000730   Data           4  timers.o(.data)
    xTimerTaskHandle                         0x20000734   Data           4  timers.o(.data)
    xLastTime                                0x20000738   Data           4  timers.o(.data)
    .data                                    0x2000073c   Section       24  heap_4.o(.data)
    xStart                                   0x2000073c   Data           8  heap_4.o(.data)
    pxEnd                                    0x20000744   Data           4  heap_4.o(.data)
    xFreeBytesRemaining                      0x20000748   Data           4  heap_4.o(.data)
    xMinimumEverFreeBytesRemaining           0x2000074c   Data           4  heap_4.o(.data)
    xBlockAllocatedBit                       0x20000750   Data           4  heap_4.o(.data)
    .data                                    0x20000754   Section       12  port.o(.data)
    uxCriticalNesting                        0x20000754   Data           4  port.o(.data)
    ucMaxSysCallPriority                     0x20000758   Data           1  port.o(.data)
    ulMaxPRIGROUPValue                       0x2000075c   Data           4  port.o(.data)
    .bss                                     0x20000760   Section       40  it.o(.bss)
    .bss                                     0x20000788   Section      132  rm_remote.o(.bss)
    .bss                                     0x2000080c   Section      188  hi219m.o(.bss)
    .bss                                     0x200008c8   Section      168  imu_data_decode.o(.bss)
    RxPkt                                    0x200008c8   Data         140  imu_data_decode.o(.bss)
    eular                                    0x20000954   Data          12  imu_data_decode.o(.bss)
    quat                                     0x20000960   Data          16  imu_data_decode.o(.bss)
    .bss                                     0x20000970   Section       28  vofa.o(.bss)
    .bss                                     0x2000098c   Section      464  chassis_behavior.o(.bss)
    .bss                                     0x20000b5c   Section      136  minipc.o(.bss)
    .bss                                     0x20000be4   Section     1175  judge.o(.bss)
    .bss                                     0x2000107c   Section       64  queue.o(.bss)
    .bss                                     0x200010bc   Section      200  tasks.o(.bss)
    pxReadyTasksLists                        0x200010bc   Data         100  tasks.o(.bss)
    xDelayedTaskList1                        0x20001120   Data          20  tasks.o(.bss)
    xDelayedTaskList2                        0x20001134   Data          20  tasks.o(.bss)
    xPendingReadyList                        0x20001148   Data          20  tasks.o(.bss)
    xTasksWaitingTermination                 0x2000115c   Data          20  tasks.o(.bss)
    xSuspendedTaskList                       0x20001170   Data          20  tasks.o(.bss)
    .bss                                     0x20001184   Section       40  timers.o(.bss)
    xActiveTimerList1                        0x20001184   Data          20  timers.o(.bss)
    xActiveTimerList2                        0x20001198   Data          20  timers.o(.bss)
    .bss                                     0x200011ac   Section    15360  heap_4.o(.bss)
    ucHeap                                   0x200011ac   Data       15360  heap_4.o(.bss)
    .bss                                     0x20004dac   Section       96  libspace.o(.bss)
    HEAP                                     0x20004e10   Section      512  startup_stm32f427x.o(HEAP)
    Heap_Mem                                 0x20004e10   Data         512  startup_stm32f427x.o(HEAP)
    STACK                                    0x20005010   Section     1024  startup_stm32f427x.o(STACK)
    Stack_Mem                                0x20005010   Data        1024  startup_stm32f427x.o(STACK)
    __initial_sp                             0x20005410   Data           0  startup_stm32f427x.o(STACK)

    Global Symbols

    Symbol Name                              Value     Ov Type        Size  Object(Section)

    BuildAttributes$$THM_ISAv4$E$P$D$K$B$S$7EM$VFPi3$EXTD16$VFPS$VFMA$PE$A:L22UL41UL21$X:L11$S22US41US21$IEEE1$IW$USESV6$~STKCKD$USESV7$~SHL$OTIME$ROPI$IEEEX$EBA8$UX$STANDARDLIB$REQ8$PRES8$EABIv2 0x00000000   Number         0  anon$$obj.o ABSOLUTE
    __ARM_use_no_argv                        0x00000000   Number         0  main.o ABSOLUTE
    __ARM_exceptions_init                     - Undefined Weak Reference
    __alloca_initialize                       - Undefined Weak Reference
    __arm_preinit_                            - Undefined Weak Reference
    __cpp_initialize__aeabi_                  - Undefined Weak Reference
    __cxa_finalize                            - Undefined Weak Reference
    __rt_locale                               - Undefined Weak Reference
    __sigvec_lookup                           - Undefined Weak Reference
    __user_heap_extent                        - Undefined Weak Reference
    _atexit_init                              - Undefined Weak Reference
    _call_atexit_fns                          - Undefined Weak Reference
    _clock_init                               - Undefined Weak Reference
    _fp_trap_init                             - Undefined Weak Reference
    _fp_trap_shutdown                         - Undefined Weak Reference
    _get_lc_collate                           - Undefined Weak Reference
    _get_lc_ctype                             - Undefined Weak Reference
    _get_lc_monetary                          - Undefined Weak Reference
    _get_lc_numeric                           - Undefined Weak Reference
    _get_lc_time                              - Undefined Weak Reference
    _getenv_init                              - Undefined Weak Reference
    _handle_redirection                       - Undefined Weak Reference
    _mutex_acquire                            - Undefined Weak Reference
    _mutex_free                               - Undefined Weak Reference
    _mutex_release                            - Undefined Weak Reference
    _printf_post_padding                      - Undefined Weak Reference
    _printf_pre_padding                       - Undefined Weak Reference
    _printf_truncate_unsigned                 - Undefined Weak Reference
    _rand_init                                - Undefined Weak Reference
    _signal_finish                            - Undefined Weak Reference
    _signal_init                              - Undefined Weak Reference
    __Vectors_Size                           0x000001ac   Number         0  startup_stm32f427x.o ABSOLUTE
    __Vectors                                0x08000000   Data           4  startup_stm32f427x.o(RESET)
    __Vectors_End                            0x080001ac   Data           0  startup_stm32f427x.o(RESET)
    __main                                   0x080001ad   Thumb Code     8  __main.o(!!!main)
    __scatterload                            0x080001b5   Thumb Code     0  __scatter.o(!!!scatter)
    __scatterload_rt2                        0x080001b5   Thumb Code    44  __scatter.o(!!!scatter)
    __scatterload_rt2_thumb_only             0x080001b5   Thumb Code     0  __scatter.o(!!!scatter)
    __scatterload_null                       0x080001c3   Thumb Code     0  __scatter.o(!!!scatter)
    __decompress                             0x080001e9   Thumb Code    90  __dczerorl2.o(!!dczerorl2)
    __decompress1                            0x080001e9   Thumb Code     0  __dczerorl2.o(!!dczerorl2)
    __scatterload_zeroinit                   0x08000245   Thumb Code    28  __scatter_zi.o(!!handler_zi)
    __rt_lib_init                            0x08000261   Thumb Code     0  libinit.o(.ARM.Collect$$libinit$$00000000)
    __rt_lib_init_fp_1                       0x08000263   Thumb Code     0  libinit2.o(.ARM.Collect$$libinit$$00000001)
    __rt_lib_init_alloca_1                   0x08000267   Thumb Code     0  libinit2.o(.ARM.Collect$$libinit$$0000002E)
    __rt_lib_init_argv_1                     0x08000267   Thumb Code     0  libinit2.o(.ARM.Collect$$libinit$$0000002C)
    __rt_lib_init_atexit_1                   0x08000267   Thumb Code     0  libinit2.o(.ARM.Collect$$libinit$$0000001B)
    __rt_lib_init_clock_1                    0x08000267   Thumb Code     0  libinit2.o(.ARM.Collect$$libinit$$00000021)
    __rt_lib_init_cpp_1                      0x08000267   Thumb Code     0  libinit2.o(.ARM.Collect$$libinit$$00000032)
    __rt_lib_init_exceptions_1               0x08000267   Thumb Code     0  libinit2.o(.ARM.Collect$$libinit$$00000030)
    __rt_lib_init_fp_trap_1                  0x08000267   Thumb Code     0  libinit2.o(.ARM.Collect$$libinit$$0000001F)
    __rt_lib_init_getenv_1                   0x08000267   Thumb Code     0  libinit2.o(.ARM.Collect$$libinit$$00000023)
    __rt_lib_init_heap_1                     0x08000267   Thumb Code     0  libinit2.o(.ARM.Collect$$libinit$$0000000A)
    __rt_lib_init_lc_collate_1               0x08000267   Thumb Code     0  libinit2.o(.ARM.Collect$$libinit$$00000011)
    __rt_lib_init_lc_ctype_1                 0x08000267   Thumb Code     0  libinit2.o(.ARM.Collect$$libinit$$00000013)
    __rt_lib_init_lc_monetary_1              0x08000267   Thumb Code     0  libinit2.o(.ARM.Collect$$libinit$$00000015)
    __rt_lib_init_lc_numeric_1               0x08000267   Thumb Code     0  libinit2.o(.ARM.Collect$$libinit$$00000017)
    __rt_lib_init_lc_time_1                  0x08000267   Thumb Code     0  libinit2.o(.ARM.Collect$$libinit$$00000019)
    __rt_lib_init_preinit_1                  0x08000267   Thumb Code     0  libinit2.o(.ARM.Collect$$libinit$$00000004)
    __rt_lib_init_rand_1                     0x08000267   Thumb Code     0  libinit2.o(.ARM.Collect$$libinit$$0000000E)
    __rt_lib_init_return                     0x08000267   Thumb Code     0  libinit2.o(.ARM.Collect$$libinit$$00000033)
    __rt_lib_init_signal_1                   0x08000267   Thumb Code     0  libinit2.o(.ARM.Collect$$libinit$$0000001D)
    __rt_lib_init_stdio_1                    0x08000267   Thumb Code     0  libinit2.o(.ARM.Collect$$libinit$$00000025)
    __rt_lib_init_user_alloc_1               0x08000267   Thumb Code     0  libinit2.o(.ARM.Collect$$libinit$$0000000C)
    __rt_lib_shutdown                        0x08000269   Thumb Code     0  libshutdown.o(.ARM.Collect$$libshutdown$$00000000)
    __rt_lib_shutdown_cpp_1                  0x0800026b   Thumb Code     0  libshutdown2.o(.ARM.Collect$$libshutdown$$00000002)
    __rt_lib_shutdown_fp_trap_1              0x0800026b   Thumb Code     0  libshutdown2.o(.ARM.Collect$$libshutdown$$00000007)
    __rt_lib_shutdown_heap_1                 0x0800026b   Thumb Code     0  libshutdown2.o(.ARM.Collect$$libshutdown$$0000000F)
    __rt_lib_shutdown_return                 0x0800026b   Thumb Code     0  libshutdown2.o(.ARM.Collect$$libshutdown$$00000010)
    __rt_lib_shutdown_signal_1               0x0800026b   Thumb Code     0  libshutdown2.o(.ARM.Collect$$libshutdown$$0000000A)
    __rt_lib_shutdown_stdio_1                0x0800026b   Thumb Code     0  libshutdown2.o(.ARM.Collect$$libshutdown$$00000004)
    __rt_lib_shutdown_user_alloc_1           0x0800026b   Thumb Code     0  libshutdown2.o(.ARM.Collect$$libshutdown$$0000000C)
    __rt_entry                               0x0800026d   Thumb Code     0  __rtentry.o(.ARM.Collect$$rtentry$$00000000)
    __rt_entry_presh_1                       0x0800026d   Thumb Code     0  __rtentry2.o(.ARM.Collect$$rtentry$$00000002)
    __rt_entry_sh                            0x0800026d   Thumb Code     0  __rtentry4.o(.ARM.Collect$$rtentry$$00000004)
    __rt_entry_li                            0x08000273   Thumb Code     0  __rtentry2.o(.ARM.Collect$$rtentry$$0000000A)
    __rt_entry_postsh_1                      0x08000273   Thumb Code     0  __rtentry2.o(.ARM.Collect$$rtentry$$00000009)
    __rt_entry_main                          0x08000277   Thumb Code     0  __rtentry2.o(.ARM.Collect$$rtentry$$0000000D)
    __rt_entry_postli_1                      0x08000277   Thumb Code     0  __rtentry2.o(.ARM.Collect$$rtentry$$0000000C)
    __rt_exit                                0x0800027f   Thumb Code     0  rtexit.o(.ARM.Collect$$rtexit$$00000000)
    __rt_exit_ls                             0x08000281   Thumb Code     0  rtexit2.o(.ARM.Collect$$rtexit$$00000003)
    __rt_exit_prels_1                        0x08000281   Thumb Code     0  rtexit2.o(.ARM.Collect$$rtexit$$00000002)
    __rt_exit_exit                           0x08000285   Thumb Code     0  rtexit2.o(.ARM.Collect$$rtexit$$00000004)
    SVC_Handler                              0x0800028d   Thumb Code    28  port.o(.emb_text)
    __asm___6_port_c_39a90d8d__prvStartFirstTask 0x080002ad   Thumb Code    28  port.o(.emb_text)
    __asm___6_port_c_39a90d8d__prvEnableVFP  0x080002cd   Thumb Code    16  port.o(.emb_text)
    PendSV_Handler                           0x080002e1   Thumb Code    88  port.o(.emb_text)
    vPortGetIPSR                             0x0800033d   Thumb Code     6  port.o(.emb_text)
    Reset_Handler                            0x08000345   Thumb Code     8  startup_stm32f427x.o(.text)
    ADC_IRQHandler                           0x0800035f   Thumb Code     0  startup_stm32f427x.o(.text)
    CAN1_RX1_IRQHandler                      0x0800035f   Thumb Code     0  startup_stm32f427x.o(.text)
    CAN1_SCE_IRQHandler                      0x0800035f   Thumb Code     0  startup_stm32f427x.o(.text)
    CAN2_RX1_IRQHandler                      0x0800035f   Thumb Code     0  startup_stm32f427x.o(.text)
    CAN2_SCE_IRQHandler                      0x0800035f   Thumb Code     0  startup_stm32f427x.o(.text)
    CRYP_IRQHandler                          0x0800035f   Thumb Code     0  startup_stm32f427x.o(.text)
    DCMI_IRQHandler                          0x0800035f   Thumb Code     0  startup_stm32f427x.o(.text)
    DMA1_Stream0_IRQHandler                  0x0800035f   Thumb Code     0  startup_stm32f427x.o(.text)
    DMA1_Stream1_IRQHandler                  0x0800035f   Thumb Code     0  startup_stm32f427x.o(.text)
    DMA1_Stream2_IRQHandler                  0x0800035f   Thumb Code     0  startup_stm32f427x.o(.text)
    DMA1_Stream3_IRQHandler                  0x0800035f   Thumb Code     0  startup_stm32f427x.o(.text)
    DMA1_Stream4_IRQHandler                  0x0800035f   Thumb Code     0  startup_stm32f427x.o(.text)
    DMA1_Stream5_IRQHandler                  0x0800035f   Thumb Code     0  startup_stm32f427x.o(.text)
    DMA1_Stream7_IRQHandler                  0x0800035f   Thumb Code     0  startup_stm32f427x.o(.text)
    DMA2D_IRQHandler                         0x0800035f   Thumb Code     0  startup_stm32f427x.o(.text)
    DMA2_Stream0_IRQHandler                  0x0800035f   Thumb Code     0  startup_stm32f427x.o(.text)
    DMA2_Stream1_IRQHandler                  0x0800035f   Thumb Code     0  startup_stm32f427x.o(.text)
    DMA2_Stream2_IRQHandler                  0x0800035f   Thumb Code     0  startup_stm32f427x.o(.text)
    DMA2_Stream3_IRQHandler                  0x0800035f   Thumb Code     0  startup_stm32f427x.o(.text)
    DMA2_Stream4_IRQHandler                  0x0800035f   Thumb Code     0  startup_stm32f427x.o(.text)
    DMA2_Stream5_IRQHandler                  0x0800035f   Thumb Code     0  startup_stm32f427x.o(.text)
    DMA2_Stream6_IRQHandler                  0x0800035f   Thumb Code     0  startup_stm32f427x.o(.text)
    DMA2_Stream7_IRQHandler                  0x0800035f   Thumb Code     0  startup_stm32f427x.o(.text)
    ETH_IRQHandler                           0x0800035f   Thumb Code     0  startup_stm32f427x.o(.text)
    ETH_WKUP_IRQHandler                      0x0800035f   Thumb Code     0  startup_stm32f427x.o(.text)
    EXTI0_IRQHandler                         0x0800035f   Thumb Code     0  startup_stm32f427x.o(.text)
    EXTI15_10_IRQHandler                     0x0800035f   Thumb Code     0  startup_stm32f427x.o(.text)
    EXTI1_IRQHandler                         0x0800035f   Thumb Code     0  startup_stm32f427x.o(.text)
    EXTI2_IRQHandler                         0x0800035f   Thumb Code     0  startup_stm32f427x.o(.text)
    EXTI3_IRQHandler                         0x0800035f   Thumb Code     0  startup_stm32f427x.o(.text)
    EXTI4_IRQHandler                         0x0800035f   Thumb Code     0  startup_stm32f427x.o(.text)
    EXTI9_5_IRQHandler                       0x0800035f   Thumb Code     0  startup_stm32f427x.o(.text)
    FLASH_IRQHandler                         0x0800035f   Thumb Code     0  startup_stm32f427x.o(.text)
    FMC_IRQHandler                           0x0800035f   Thumb Code     0  startup_stm32f427x.o(.text)
    FPU_IRQHandler                           0x0800035f   Thumb Code     0  startup_stm32f427x.o(.text)
    HASH_RNG_IRQHandler                      0x0800035f   Thumb Code     0  startup_stm32f427x.o(.text)
    I2C1_ER_IRQHandler                       0x0800035f   Thumb Code     0  startup_stm32f427x.o(.text)
    I2C1_EV_IRQHandler                       0x0800035f   Thumb Code     0  startup_stm32f427x.o(.text)
    I2C2_ER_IRQHandler                       0x0800035f   Thumb Code     0  startup_stm32f427x.o(.text)
    I2C2_EV_IRQHandler                       0x0800035f   Thumb Code     0  startup_stm32f427x.o(.text)
    I2C3_ER_IRQHandler                       0x0800035f   Thumb Code     0  startup_stm32f427x.o(.text)
    I2C3_EV_IRQHandler                       0x0800035f   Thumb Code     0  startup_stm32f427x.o(.text)
    OTG_FS_IRQHandler                        0x0800035f   Thumb Code     0  startup_stm32f427x.o(.text)
    OTG_FS_WKUP_IRQHandler                   0x0800035f   Thumb Code     0  startup_stm32f427x.o(.text)
    OTG_HS_EP1_IN_IRQHandler                 0x0800035f   Thumb Code     0  startup_stm32f427x.o(.text)
    OTG_HS_EP1_OUT_IRQHandler                0x0800035f   Thumb Code     0  startup_stm32f427x.o(.text)
    OTG_HS_IRQHandler                        0x0800035f   Thumb Code     0  startup_stm32f427x.o(.text)
    OTG_HS_WKUP_IRQHandler                   0x0800035f   Thumb Code     0  startup_stm32f427x.o(.text)
    PVD_IRQHandler                           0x0800035f   Thumb Code     0  startup_stm32f427x.o(.text)
    RCC_IRQHandler                           0x0800035f   Thumb Code     0  startup_stm32f427x.o(.text)
    RTC_Alarm_IRQHandler                     0x0800035f   Thumb Code     0  startup_stm32f427x.o(.text)
    RTC_WKUP_IRQHandler                      0x0800035f   Thumb Code     0  startup_stm32f427x.o(.text)
    SAI1_IRQHandler                          0x0800035f   Thumb Code     0  startup_stm32f427x.o(.text)
    SDIO_IRQHandler                          0x0800035f   Thumb Code     0  startup_stm32f427x.o(.text)
    SPI1_IRQHandler                          0x0800035f   Thumb Code     0  startup_stm32f427x.o(.text)
    SPI2_IRQHandler                          0x0800035f   Thumb Code     0  startup_stm32f427x.o(.text)
    SPI3_IRQHandler                          0x0800035f   Thumb Code     0  startup_stm32f427x.o(.text)
    SPI4_IRQHandler                          0x0800035f   Thumb Code     0  startup_stm32f427x.o(.text)
    SPI5_IRQHandler                          0x0800035f   Thumb Code     0  startup_stm32f427x.o(.text)
    SPI6_IRQHandler                          0x0800035f   Thumb Code     0  startup_stm32f427x.o(.text)
    TAMP_STAMP_IRQHandler                    0x0800035f   Thumb Code     0  startup_stm32f427x.o(.text)
    TIM1_BRK_TIM9_IRQHandler                 0x0800035f   Thumb Code     0  startup_stm32f427x.o(.text)
    TIM1_CC_IRQHandler                       0x0800035f   Thumb Code     0  startup_stm32f427x.o(.text)
    TIM1_TRG_COM_TIM11_IRQHandler            0x0800035f   Thumb Code     0  startup_stm32f427x.o(.text)
    TIM1_UP_TIM10_IRQHandler                 0x0800035f   Thumb Code     0  startup_stm32f427x.o(.text)
    TIM2_IRQHandler                          0x0800035f   Thumb Code     0  startup_stm32f427x.o(.text)
    TIM3_IRQHandler                          0x0800035f   Thumb Code     0  startup_stm32f427x.o(.text)
    TIM4_IRQHandler                          0x0800035f   Thumb Code     0  startup_stm32f427x.o(.text)
    TIM5_IRQHandler                          0x0800035f   Thumb Code     0  startup_stm32f427x.o(.text)
    TIM6_DAC_IRQHandler                      0x0800035f   Thumb Code     0  startup_stm32f427x.o(.text)
    TIM7_IRQHandler                          0x0800035f   Thumb Code     0  startup_stm32f427x.o(.text)
    TIM8_BRK_TIM12_IRQHandler                0x0800035f   Thumb Code     0  startup_stm32f427x.o(.text)
    TIM8_CC_IRQHandler                       0x0800035f   Thumb Code     0  startup_stm32f427x.o(.text)
    TIM8_TRG_COM_TIM14_IRQHandler            0x0800035f   Thumb Code     0  startup_stm32f427x.o(.text)
    TIM8_UP_TIM13_IRQHandler                 0x0800035f   Thumb Code     0  startup_stm32f427x.o(.text)
    UART4_IRQHandler                         0x0800035f   Thumb Code     0  startup_stm32f427x.o(.text)
    UART5_IRQHandler                         0x0800035f   Thumb Code     0  startup_stm32f427x.o(.text)
    USART2_IRQHandler                        0x0800035f   Thumb Code     0  startup_stm32f427x.o(.text)
    WWDG_IRQHandler                          0x0800035f   Thumb Code     0  startup_stm32f427x.o(.text)
    __user_initial_stackheap                 0x08000361   Thumb Code     0  startup_stm32f427x.o(.text)
    __aeabi_memcpy                           0x08000385   Thumb Code     0  rt_memcpy_v6.o(.text)
    __rt_memcpy                              0x08000385   Thumb Code   138  rt_memcpy_v6.o(.text)
    _memcpy_lastbytes                        0x080003eb   Thumb Code     0  rt_memcpy_v6.o(.text)
    __aeabi_memcpy4                          0x0800040f   Thumb Code     0  rt_memcpy_w.o(.text)
    __aeabi_memcpy8                          0x0800040f   Thumb Code     0  rt_memcpy_w.o(.text)
    __rt_memcpy_w                            0x0800040f   Thumb Code   100  rt_memcpy_w.o(.text)
    _memcpy_lastbytes_aligned                0x08000457   Thumb Code     0  rt_memcpy_w.o(.text)
    __aeabi_memset                           0x08000473   Thumb Code    16  aeabi_memset.o(.text)
    __aeabi_memclr4                          0x08000483   Thumb Code     0  rt_memclr_w.o(.text)
    __aeabi_memclr8                          0x08000483   Thumb Code     0  rt_memclr_w.o(.text)
    __rt_memclr_w                            0x08000483   Thumb Code    78  rt_memclr_w.o(.text)
    _memset_w                                0x08000487   Thumb Code     0  rt_memclr_w.o(.text)
    __use_two_region_memory                  0x080004d1   Thumb Code     2  heapauxi.o(.text)
    __rt_heap_escrow                         0x080004d3   Thumb Code     2  heapauxi.o(.text)
    __rt_heap_expand                         0x080004d5   Thumb Code     2  heapauxi.o(.text)
    __read_errno                             0x080004d7   Thumb Code    10  _rserrno.o(.text)
    __set_errno                              0x080004e1   Thumb Code    12  _rserrno.o(.text)
    __aeabi_memclr                           0x080004ed   Thumb Code     0  rt_memclr.o(.text)
    __rt_memclr                              0x080004ed   Thumb Code    68  rt_memclr.o(.text)
    _memset                                  0x080004f1   Thumb Code     0  rt_memclr.o(.text)
    __aeabi_errno_addr                       0x08000531   Thumb Code     8  rt_errno_addr_intlibspace.o(.text)
    __errno$intlibspace                      0x08000531   Thumb Code     0  rt_errno_addr_intlibspace.o(.text)
    __rt_errno_addr$intlibspace              0x08000531   Thumb Code     0  rt_errno_addr_intlibspace.o(.text)
    __user_libspace                          0x08000539   Thumb Code     8  libspace.o(.text)
    __user_perproc_libspace                  0x08000539   Thumb Code     0  libspace.o(.text)
    __user_perthread_libspace                0x08000539   Thumb Code     0  libspace.o(.text)
    __user_setup_stackheap                   0x08000541   Thumb Code    74  sys_stackheap_outer.o(.text)
    exit                                     0x0800058b   Thumb Code    18  exit.o(.text)
    __I$use$semihosting                      0x0800059d   Thumb Code     0  use_no_semi.o(.text)
    __use_no_semihosting_swi                 0x0800059d   Thumb Code     2  use_no_semi.o(.text)
    __semihosting_library_function           0x0800059f   Thumb Code     0  indicate_semi.o(.text)
    _sys_exit                                0x080005a1   Thumb Code     8  sys_exit.o(.text)
    BSP_Init                                 0x080005ad   Thumb Code    24  main.o(i.BSP_Init)
    BusFault_Handler                         0x080005c5   Thumb Code     4  stm32f4xx_it.o(i.BusFault_Handler)
    CAN1_RX0_IRQHandler                      0x080005c9   Thumb Code    48  it.o(i.CAN1_RX0_IRQHandler)
    CAN1_TX_IRQHandler                       0x08000605   Thumb Code    22  it.o(i.CAN1_TX_IRQHandler)
    CAN2_RX0_IRQHandler                      0x08000621   Thumb Code    48  it.o(i.CAN2_RX0_IRQHandler)
    CAN2_TX_IRQHandler                       0x0800065d   Thumb Code    22  it.o(i.CAN2_TX_IRQHandler)
    CAN_ClearFlag                            0x08000679   Thumb Code    52  stm32f4xx_can.o(i.CAN_ClearFlag)
    CAN_ClearITPendingBit                    0x080006b1   Thumb Code   162  stm32f4xx_can.o(i.CAN_ClearITPendingBit)
    CAN_DeInit                               0x08000759   Thumb Code    50  stm32f4xx_can.o(i.CAN_DeInit)
    CAN_FilterInit                           0x08000791   Thumb Code   258  stm32f4xx_can.o(i.CAN_FilterInit)
    CAN_GetITStatus                          0x08000899   Thumb Code   284  stm32f4xx_can.o(i.CAN_GetITStatus)
    CAN_ITConfig                             0x080009b9   Thumb Code    18  stm32f4xx_can.o(i.CAN_ITConfig)
    CAN_Init                                 0x080009cb   Thumb Code   276  stm32f4xx_can.o(i.CAN_Init)
    CAN_Receive                              0x08000adf   Thumb Code   240  stm32f4xx_can.o(i.CAN_Receive)
    CAN_StructInit                           0x08000bcf   Thumb Code    32  stm32f4xx_can.o(i.CAN_StructInit)
    Chassis_Control                          0x08000bf1   Thumb Code   282  chassis_behavior.o(i.Chassis_Control)
    DMA1_Stream6_IRQHandler                  0x08000e51   Thumb Code    30  vofa.o(i.DMA1_Stream6_IRQHandler)
    DMA_ClearFlag                            0x08000e79   Thumb Code    38  stm32f4xx_dma.o(i.DMA_ClearFlag)
    DMA_ClearITPendingBit                    0x08000ead   Thumb Code    38  stm32f4xx_dma.o(i.DMA_ClearITPendingBit)
    DMA_Cmd                                  0x08000ee1   Thumb Code    22  stm32f4xx_dma.o(i.DMA_Cmd)
    DMA_DeInit                               0x08000ef9   Thumb Code   324  stm32f4xx_dma.o(i.DMA_DeInit)
    DMA_DoubleBufferModeCmd                  0x08001051   Thumb Code    22  stm32f4xx_dma.o(i.DMA_DoubleBufferModeCmd)
    DMA_DoubleBufferModeConfig               0x08001067   Thumb Code    24  stm32f4xx_dma.o(i.DMA_DoubleBufferModeConfig)
    DMA_GetCmdStatus                         0x0800107f   Thumb Code    20  stm32f4xx_dma.o(i.DMA_GetCmdStatus)
    DMA_GetCurrDataCounter                   0x08001093   Thumb Code     8  stm32f4xx_dma.o(i.DMA_GetCurrDataCounter)
    DMA_GetCurrentMemoryTarget               0x0800109b   Thumb Code    20  stm32f4xx_dma.o(i.DMA_GetCurrentMemoryTarget)
    DMA_GetITStatus                          0x080010b1   Thumb Code    82  stm32f4xx_dma.o(i.DMA_GetITStatus)
    DMA_Init                                 0x08001115   Thumb Code    82  stm32f4xx_dma.o(i.DMA_Init)
    DMA_SetCurrDataCounter                   0x0800116d   Thumb Code     4  stm32f4xx_dma.o(i.DMA_SetCurrDataCounter)
    DMA_StructInit                           0x08001171   Thumb Code    34  stm32f4xx_dma.o(i.DMA_StructInit)
    DebugMon_Handler                         0x08001193   Thumb Code     2  stm32f4xx_it.o(i.DebugMon_Handler)
    GPIO_Init                                0x08001195   Thumb Code   144  stm32f4xx_gpio.o(i.GPIO_Init)
    GPIO_PinAFConfig                         0x08001225   Thumb Code    70  stm32f4xx_gpio.o(i.GPIO_PinAFConfig)
    GPIO_ResetBits                           0x0800126b   Thumb Code     4  stm32f4xx_gpio.o(i.GPIO_ResetBits)
    GPIO_SetBits                             0x0800126f   Thumb Code     4  stm32f4xx_gpio.o(i.GPIO_SetBits)
    HardFault_Handler                        0x080012cd   Thumb Code     4  stm32f4xx_it.o(i.HardFault_Handler)
    Hardware_Init                            0x080012d1   Thumb Code    16  main.o(i.Hardware_Init)
    MemManage_Handler                        0x080012e1   Thumb Code     4  stm32f4xx_it.o(i.MemManage_Handler)
    NMI_Handler                              0x080012e5   Thumb Code     2  stm32f4xx_it.o(i.NMI_Handler)
    NVIC_Init                                0x080012e9   Thumb Code   106  misc.o(i.NVIC_Init)
    NVIC_PriorityGroupConfig                 0x08001361   Thumb Code    10  misc.o(i.NVIC_PriorityGroupConfig)
    Packet_Decode                            0x080014ed   Thumb Code   396  packet.o(i.Packet_Decode)
    Packet_DecodeInit                        0x08001691   Thumb Code    24  packet.o(i.Packet_DecodeInit)
    RCC_AHB1PeriphClockCmd                   0x080016b1   Thumb Code    26  stm32f4xx_rcc.o(i.RCC_AHB1PeriphClockCmd)
    RCC_APB1PeriphClockCmd                   0x080016d1   Thumb Code    26  stm32f4xx_rcc.o(i.RCC_APB1PeriphClockCmd)
    RCC_APB1PeriphResetCmd                   0x080016f1   Thumb Code    26  stm32f4xx_rcc.o(i.RCC_APB1PeriphResetCmd)
    RCC_APB2PeriphClockCmd                   0x08001711   Thumb Code    26  stm32f4xx_rcc.o(i.RCC_APB2PeriphClockCmd)
    RCC_APB2PeriphResetCmd                   0x08001731   Thumb Code    26  stm32f4xx_rcc.o(i.RCC_APB2PeriphResetCmd)
    RCC_GetClocksFreq                        0x08001751   Thumb Code   214  stm32f4xx_rcc.o(i.RCC_GetClocksFreq)
    RM_Judge_DataDecodeByBuff                0x08001839   Thumb Code   606  judge.o(i.RM_Judge_DataDecodeByBuff)
    RM_Judge_DataDequeue                     0x08001aad   Thumb Code    58  judge.o(i.RM_Judge_DataDequeue)
    RM_Judge_DataEnqueue                     0x08001ae7   Thumb Code    32  judge.o(i.RM_Judge_DataEnqueue)
    RM_Judge_DataLength                      0x08001b07   Thumb Code   484  judge.o(i.RM_Judge_DataLength)
    RM_Judge_FindFrame                       0x08001ceb   Thumb Code   198  judge.o(i.RM_Judge_FindFrame)
    Start_Task                               0x08001e9d   Thumb Code   190  user_task.o(i.Start_Task)
    SysTick_Handler                          0x08002021   Thumb Code    46  port.o(i.SysTick_Handler)
    SystemInit                               0x08002055   Thumb Code    88  system_stm32f4xx.o(i.SystemInit)
    Task_ChassisCtrl                         0x080020bd   Thumb Code   464  chassis_behavior.o(i.Task_ChassisCtrl)
    Task_Hi219mDataDecode                    0x080022a5   Thumb Code    76  user_task.o(i.Task_Hi219mDataDecode)
    Task_Init                                0x08002301   Thumb Code    24  user_task.o(i.Task_Init)
    Task_JudgeDataDecode                     0x0800232d   Thumb Code    48  user_task.o(i.Task_JudgeDataDecode)
    Task_MiniPCDataDecode                    0x08002365   Thumb Code    18  minipc.o(i.Task_MiniPCDataDecode)
    Task_MiniPCDataSend                      0x08002377   Thumb Code    18  minipc.o(i.Task_MiniPCDataSend)
    Task_Send2Gimbal                         0x08002389   Thumb Code    18  user_task.o(i.Task_Send2Gimbal)
    UART7_IRQHandler                         0x0800239b   Thumb Code     2  it.o(i.UART7_IRQHandler)
    UART8_IRQHandler                         0x0800239d   Thumb Code     2  it.o(i.UART8_IRQHandler)
    USART1_IRQHandler                        0x080023a1   Thumb Code   170  it.o(i.USART1_IRQHandler)
    USART3_IRQHandler                        0x08002461   Thumb Code     2  it.o(i.USART3_IRQHandler)
    USART6_IRQHandler                        0x08002465   Thumb Code   146  it.o(i.USART6_IRQHandler)
    USART_Cmd                                0x08002519   Thumb Code    24  stm32f4xx_usart.o(i.USART_Cmd)
    USART_DMACmd                             0x08002531   Thumb Code    18  stm32f4xx_usart.o(i.USART_DMACmd)
    USART_DeInit                             0x08002545   Thumb Code   206  stm32f4xx_usart.o(i.USART_DeInit)
    USART_GetITStatus                        0x08002635   Thumb Code    84  stm32f4xx_usart.o(i.USART_GetITStatus)
    USART_ITConfig                           0x08002689   Thumb Code    74  stm32f4xx_usart.o(i.USART_ITConfig)
    USART_Init                               0x080026d5   Thumb Code   204  stm32f4xx_usart.o(i.USART_Init)
    USART_StructInit                         0x080027a9   Thumb Code    24  stm32f4xx_usart.o(i.USART_StructInit)
    UsageFault_Handler                       0x080027c1   Thumb Code     4  stm32f4xx_it.o(i.UsageFault_Handler)
    Verify_CRC16_Check_Sum                   0x080027c5   Thumb Code    60  crc_check.o(i.Verify_CRC16_Check_Sum)
    Verify_CRC8_Check_Sum                    0x08002805   Thumb Code    46  crc_check.o(i.Verify_CRC8_Check_Sum)
    __ARM_fpclassify                         0x08002833   Thumb Code    48  fpclassify.o(i.__ARM_fpclassify)
    __hardfp_atan                            0x08002869   Thumb Code   622  atan.o(i.__hardfp_atan)
    __hardfp_atan2                           0x08002b41   Thumb Code   432  atan2.o(i.__hardfp_atan2)
    __hardfp_fmod                            0x08002d31   Thumb Code   254  fmod.o(i.__hardfp_fmod)
    __kernel_poly                            0x08002e35   Thumb Code   248  poly.o(i.__kernel_poly)
    __mathlib_dbl_infnan                     0x08002f2d   Thumb Code    20  dunder.o(i.__mathlib_dbl_infnan)
    __mathlib_dbl_infnan2                    0x08002f41   Thumb Code    20  dunder.o(i.__mathlib_dbl_infnan2)
    __mathlib_dbl_invalid                    0x08002f59   Thumb Code    24  dunder.o(i.__mathlib_dbl_invalid)
    __mathlib_dbl_underflow                  0x08002f79   Thumb Code    24  dunder.o(i.__mathlib_dbl_underflow)
    appendValue                              0x08002f99   Thumb Code    34  arraylist.o(i.appendValue)
    atan                                     0x08002fbb   Thumb Code    16  atan.o(i.atan)
    configCAN_Init                           0x08002fcd   Thumb Code   314  can.o(i.configCAN_Init)
    configChassis_ParaInit                   0x08003111   Thumb Code    22  chassis_behavior.o(i.configChassis_ParaInit)
    configDMA_Init                           0x08003139   Thumb Code   436  dma.o(i.configDMA_Init)
    configHi219m_ParaInit                    0x08003315   Thumb Code     8  hi219m.o(i.configHi219m_ParaInit)
    configIO_Init                            0x0800331d   Thumb Code   874  io.o(i.configIO_Init)
    configNVIC_Init                          0x080036a1   Thumb Code   334  nvic.o(i.configNVIC_Init)
    configUART_Init                          0x080037f1   Thumb Code   564  uart.o(i.configUART_Init)
    configVOFA_ParaInit                      0x08003a45   Thumb Code    18  vofa.o(i.configVOFA_ParaInit)
    deleteAllValue                           0x08003a99   Thumb Code    34  arraylist.o(i.deleteAllValue)
    deleteRangeValue                         0x08003abb   Thumb Code    58  arraylist.o(i.deleteRangeValue)
    deleteValue                              0x08003af5   Thumb Code    72  arraylist.o(i.deleteValue)
    fabs                                     0x08003b3d   Thumb Code    24  fabs.o(i.fabs)
    findValue                                0x08003b55   Thumb Code    52  arraylist.o(i.findValue)
    fnHi219m_DataDecode                      0x08003b89   Thumb Code   574  hi219m.o(i.fnHi219m_DataDecode)
    fnMotor_CanRecvDataDecode                0x08003de9   Thumb Code   124  motor.o(i.fnMotor_CanRecvDataDecode)
    fnRemote_RawDataDecode                   0x08003e85   Thumb Code   248  rm_remote.o(i.fnRemote_RawDataDecode)
    getArrayLength                           0x08003f89   Thumb Code     6  arraylist.o(i.getArrayLength)
    getValue                                 0x08003f8f   Thumb Code    28  arraylist.o(i.getValue)
    get_eular                                0x08003fad   Thumb Code    14  imu_data_decode.o(i.get_eular)
    get_raw_gyo                              0x08003fc1   Thumb Code    16  imu_data_decode.o(i.get_raw_gyo)
    get_raw_mag                              0x08003fd5   Thumb Code    16  imu_data_decode.o(i.get_raw_mag)
    imu_data_decode_init                     0x08003fe9   Thumb Code    14  imu_data_decode.o(i.imu_data_decode_init)
    isEmpty                                  0x08004001   Thumb Code    14  arraylist.o(i.isEmpty)
    isFull                                   0x0800400f   Thumb Code    18  arraylist.o(i.isFull)
    main                                     0x08004021   Thumb Code    20  main.o(i.main)
    pvPortMalloc                             0x080049b5   Thumb Code   306  heap_4.o(i.pvPortMalloc)
    pvTaskIncrementMutexHeldCount            0x08004afd   Thumb Code    26  tasks.o(i.pvTaskIncrementMutexHeldCount)
    pxPortInitialiseStack                    0x08004b1d   Thumb Code    38  port.o(i.pxPortInitialiseStack)
    uxListRemove                             0x08004cd9   Thumb Code    40  list.o(i.uxListRemove)
    vApplicationIdleHook                     0x08004d01   Thumb Code     2  stm32f4xx_it.o(i.vApplicationIdleHook)
    vApplicationMallocFailedHook             0x08004d03   Thumb Code    22  stm32f4xx_it.o(i.vApplicationMallocFailedHook)
    vApplicationStackOverflowHook            0x08004d19   Thumb Code     2  stm32f4xx_it.o(i.vApplicationStackOverflowHook)
    vApplicationTickHook                     0x08004d1b   Thumb Code     2  stm32f4xx_it.o(i.vApplicationTickHook)
    vListInitialise                          0x08004d1d   Thumb Code    26  list.o(i.vListInitialise)
    vListInitialiseItem                      0x08004d37   Thumb Code     6  list.o(i.vListInitialiseItem)
    vListInsert                              0x08004d3d   Thumb Code    52  list.o(i.vListInsert)
    vListInsertEnd                           0x08004d71   Thumb Code    24  list.o(i.vListInsertEnd)
    vPortEnterCritical                       0x08004d89   Thumb Code    76  port.o(i.vPortEnterCritical)
    vPortExitCritical                        0x08004ddd   Thumb Code    56  port.o(i.vPortExitCritical)
    vPortFree                                0x08004e19   Thumb Code   140  heap_4.o(i.vPortFree)
    vPortSetupTimerInterrupt                 0x08004ead   Thumb Code    14  port.o(i.vPortSetupTimerInterrupt)
    vPortValidateInterruptPriority           0x08004ec1   Thumb Code   106  port.o(i.vPortValidateInterruptPriority)
    vQueueAddToRegistry                      0x08004f39   Thumb Code    38  queue.o(i.vQueueAddToRegistry)
    vQueueWaitForMessageRestricted           0x08004f65   Thumb Code    74  queue.o(i.vQueueWaitForMessageRestricted)
    vTaskDelay                               0x08004fb1   Thumb Code    82  tasks.o(i.vTaskDelay)
    vTaskDelayUntil                          0x0800500d   Thumb Code   200  tasks.o(i.vTaskDelayUntil)
    vTaskDelete                              0x080050e1   Thumb Code   202  tasks.o(i.vTaskDelete)
    vTaskMissedYield                         0x080051d5   Thumb Code     8  tasks.o(i.vTaskMissedYield)
    vTaskPlaceOnEventList                    0x080051e1   Thumb Code    52  tasks.o(i.vTaskPlaceOnEventList)
    vTaskPlaceOnEventListRestricted          0x08005219   Thumb Code    60  tasks.o(i.vTaskPlaceOnEventListRestricted)
    vTaskPriorityInherit                     0x08005259   Thumb Code   164  tasks.o(i.vTaskPriorityInherit)
    vTaskSetTimeOutState                     0x08005309   Thumb Code    38  tasks.o(i.vTaskSetTimeOutState)
    vTaskStartScheduler                      0x08005339   Thumb Code   118  tasks.o(i.vTaskStartScheduler)
    vTaskSuspendAll                          0x080053cd   Thumb Code    12  tasks.o(i.vTaskSuspendAll)
    vTaskSwitchContext                       0x080053dd   Thumb Code   174  tasks.o(i.vTaskSwitchContext)
    xPortStartScheduler                      0x080054a1   Thumb Code   288  port.o(i.xPortStartScheduler)
    xQueueGenericCreate                      0x080055dd   Thumb Code    88  queue.o(i.xQueueGenericCreate)
    xQueueGenericReceive                     0x08005635   Thumb Code   446  queue.o(i.xQueueGenericReceive)
    xQueueGenericReset                       0x080057f9   Thumb Code   146  queue.o(i.xQueueGenericReset)
    xQueueGenericSend                        0x08005891   Thumb Code   420  queue.o(i.xQueueGenericSend)
    xQueueGenericSendFromISR                 0x08005a39   Thumb Code   248  queue.o(i.xQueueGenericSendFromISR)
    xQueueGiveFromISR                        0x08005b31   Thumb Code   224  queue.o(i.xQueueGiveFromISR)
    xTaskCheckForTimeOut                     0x08005c11   Thumb Code   132  tasks.o(i.xTaskCheckForTimeOut)
    xTaskCreate                              0x08005c9d   Thumb Code    96  tasks.o(i.xTaskCreate)
    xTaskGetSchedulerState                   0x08005cfd   Thumb Code    24  tasks.o(i.xTaskGetSchedulerState)
    xTaskGetTickCount                        0x08005d1d   Thumb Code     6  tasks.o(i.xTaskGetTickCount)
    xTaskIncrementTick                       0x08005d29   Thumb Code   296  tasks.o(i.xTaskIncrementTick)
    xTaskPriorityDisinherit                  0x08005e7d   Thumb Code   188  tasks.o(i.xTaskPriorityDisinherit)
    xTaskRemoveFromEventList                 0x08005f45   Thumb Code   128  tasks.o(i.xTaskRemoveFromEventList)
    xTaskResumeAll                           0x08005fdd   Thumb Code   224  tasks.o(i.xTaskResumeAll)
    xTimerCreateTimerTask                    0x080060e1   Thumb Code    66  timers.o(i.xTimerCreateTimerTask)
    xTimerGenericCommand                     0x08006139   Thumb Code   126  timers.o(i.xTimerGenericCommand)
    __aeabi_dneg                             0x080061bd   Thumb Code     0  basic.o(x$fpl$basic)
    _dneg                                    0x080061bd   Thumb Code     6  basic.o(x$fpl$basic)
    __aeabi_fneg                             0x080061c3   Thumb Code     0  basic.o(x$fpl$basic)
    _fneg                                    0x080061c3   Thumb Code     6  basic.o(x$fpl$basic)
    _dabs                                    0x080061c9   Thumb Code     6  basic.o(x$fpl$basic)
    _fabs                                    0x080061cf   Thumb Code     6  basic.o(x$fpl$basic)
    __aeabi_d2f                              0x080061d5   Thumb Code     0  d2f.o(x$fpl$d2f)
    _d2f                                     0x080061d5   Thumb Code    98  d2f.o(x$fpl$d2f)
    __aeabi_dadd                             0x08006239   Thumb Code     0  daddsub_clz.o(x$fpl$dadd)
    _dadd                                    0x08006239   Thumb Code   332  daddsub_clz.o(x$fpl$dadd)
    __aeabi_ddiv                             0x08006389   Thumb Code     0  ddiv.o(x$fpl$ddiv)
    _ddiv                                    0x08006389   Thumb Code   552  ddiv.o(x$fpl$ddiv)
    __aeabi_dmul                             0x08006639   Thumb Code     0  dmul.o(x$fpl$dmul)
    _dmul                                    0x08006639   Thumb Code   332  dmul.o(x$fpl$dmul)
    __fpl_dnaninf                            0x0800678d   Thumb Code   156  dnaninf.o(x$fpl$dnaninf)
    _drem                                    0x08006829   Thumb Code   328  drem_clz.o(x$fpl$drem)
    __fpl_dretinf                            0x08006979   Thumb Code    12  dretinf.o(x$fpl$dretinf)
    __aeabi_drsub                            0x08006985   Thumb Code     0  daddsub_clz.o(x$fpl$drsb)
    _drsb                                    0x08006985   Thumb Code    22  daddsub_clz.o(x$fpl$drsb)
    __aeabi_dsub                             0x0800699d   Thumb Code     0  daddsub_clz.o(x$fpl$dsub)
    _dsub                                    0x0800699d   Thumb Code   464  daddsub_clz.o(x$fpl$dsub)
    __aeabi_f2d                              0x08006b71   Thumb Code     0  f2d.o(x$fpl$f2d)
    _f2d                                     0x08006b71   Thumb Code    86  f2d.o(x$fpl$f2d)
    __fpl_fnaninf                            0x08006bc7   Thumb Code   140  fnaninf.o(x$fpl$fnaninf)
    _fp_init                                 0x08006c53   Thumb Code    10  fpinit.o(x$fpl$fpinit)
    __fplib_config_fpu_vfp                   0x08006c5b   Thumb Code     0  fpinit.o(x$fpl$fpinit)
    __fplib_config_pureend_doubles           0x08006c5b   Thumb Code     0  fpinit.o(x$fpl$fpinit)
    __fpl_fretinf                            0x08006c5d   Thumb Code    10  fretinf.o(x$fpl$fretinf)
    CRC8_INIT                                0x08006c66   Data           1  crc_check.o(.constdata)
    __I$use$fp                               0x08006c66   Number         0  usenofp.o(x$fpl$usenofp)
    CRC_INIT_Judge                           0x08006c67   Data         256  crc_check.o(.constdata)
    wCRC_Table                               0x08006d68   Data         512  crc_check.o(.constdata)
    __mathlib_zero                           0x08007000   Data           8  qnan.o(.constdata)
    Region$$Table$$Base                      0x08007008   Number         0  anon$$obj.o(Region$$Table)
    Region$$Table$$Limit                     0x08007028   Number         0  anon$$obj.o(Region$$Table)
    P_nJudgeBuffLength                       0x20000000   Data           2  it.o(.data)
    P_stMotor_ChassisF                       0x20000008   Data         132  motor.o(.data)
    P_stMotor_ChassisB                       0x2000008c   Data         132  motor.o(.data)
    P_stMotor_RudderF                        0x20000110   Data         260  motor.o(.data)
    P_stMotor_RudderB                        0x20000214   Data         260  motor.o(.data)
    P_stMotor_Gimbal_YawH                    0x20000318   Data         260  motor.o(.data)
    P_stMotor_Gimbal_YawL                    0x2000041c   Data         260  motor.o(.data)
    P_stMotor_Gimbal_Pitch                   0x20000520   Data         260  motor.o(.data)
    Reset_yaw                                0x20000624   Data           1  motor.o(.data)
    SBUS_First_Connected                     0x20000628   Data           1  rm_remote.o(.data)
    P_uintH219BuffLength                     0x2000062c   Data           2  hi219m.o(.data)
    mag                                      0x2000062e   Data           6  hi219m.o(.data)
    geomagnetism                             0x20000634   Data           4  hi219m.o(.data)
    Vector_F                                 0x20000660   Data           8  chassis_behavior.o(.data)
    Vector_B                                 0x20000668   Data           8  chassis_behavior.o(.data)
    vx                                       0x20000670   Data           4  chassis_behavior.o(.data)
    vy                                       0x20000674   Data           4  chassis_behavior.o(.data)
    vw                                       0x20000678   Data           4  chassis_behavior.o(.data)
    vx_1                                     0x2000067c   Data           4  chassis_behavior.o(.data)
    vy_1                                     0x20000680   Data           4  chassis_behavior.o(.data)
    vw_1                                     0x20000684   Data           4  chassis_behavior.o(.data)
    a                                        0x20000688   Data           4  chassis_behavior.o(.data)
    b                                        0x2000068c   Data           4  chassis_behavior.o(.data)
    StartTask_Handler                        0x200006a8   Data           4  user_task.o(.data)
    Task_ChassisCtrl_Handler                 0x200006ac   Data           4  user_task.o(.data)
    Task_MiniPCDataDecode_Handler            0x200006b0   Data           4  user_task.o(.data)
    Task_MiniPCDataSend_Handler              0x200006b4   Data           4  user_task.o(.data)
    Task_Hi219mDataDecode_Handler            0x200006b8   Data           4  user_task.o(.data)
    Task_JudgeDataDecode_Handler             0x200006bc   Data           4  user_task.o(.data)
    Task_Send2Gimbal_Handler                 0x200006c0   Data           4  user_task.o(.data)
    P_shH219DataDecode_Binary                0x200006c4   Data           4  user_task.o(.data)
    P_stPCDataDecode_Binary                  0x200006c8   Data           4  user_task.o(.data)
    JudgeDataDecode_Binary                   0x200006cc   Data           4  user_task.o(.data)
    CRC_INIT                                 0x200006d0   Data           2  crc_check.o(.data)
    Send_Data_Lidar                          0x200006d2   Data           3  judge.o(.data)
    x_c                                      0x200006d6   Data           2  judge.o(.data)
    pxCurrentTCB                             0x200006ec   Data           4  tasks.o(.data)
    P_stCAN1DataRecv                         0x20000760   Data          20  it.o(.bss)
    P_stCAN2DataRecv                         0x20000774   Data          20  it.o(.bss)
    P_uintRemote_Data_Buf                    0x20000788   Data         100  rm_remote.o(.bss)
    P_stRemoteData_Recv                      0x200007ec   Data          16  rm_remote.o(.bss)
    P_stRemoteData_Recv_Last                 0x200007fc   Data          16  rm_remote.o(.bss)
    P_uintH219MDataBuffer                    0x2000080c   Data         128  hi219m.o(.bss)
    P_stHi219m                               0x2000088c   Data          48  hi219m.o(.bss)
    mage                                     0x200008bc   Data          12  hi219m.o(.bss)
    VOFA_Origin_Data                         0x20000970   Data          12  vofa.o(.bss)
    VOFA_Send_Data                           0x2000097c   Data          16  vofa.o(.bss)
    P_stChassis                              0x2000098c   Data         464  chassis_behavior.o(.bss)
    P_ucPCVisionDataBuffer                   0x20000b5c   Data          11  minipc.o(.bss)
    P_ucPCVisionDataBuffer_Last              0x20000b67   Data          11  minipc.o(.bss)
    P_ucPCVisionDataBuffer_L                 0x20000b72   Data          11  minipc.o(.bss)
    P_ucPCVisionDataSender                   0x20000b7d   Data          27  minipc.o(.bss)
    MiniPC_Data_Recv                         0x20000b98   Data          16  minipc.o(.bss)
    Send_Data                                0x20000ba8   Data          27  minipc.o(.bss)
    MiniPC_Data_Send                         0x20000bc4   Data          32  minipc.o(.bss)
    P_ucJudgeDataBuffer                      0x20000be4   Data         512  judge.o(.bss)
    P_stJudgeDataArrayListBuff               0x20000de4   Data          12  judge.o(.bss)
    P_stgamestatus                           0x20000df0   Data         632  judge.o(.bss)
    fn_game_robot_pos                        0x20001068   Data          19  judge.o(.bss)
    xQueueRegistry                           0x2000107c   Data          64  queue.o(.bss)
    __libspace_start                         0x20004dac   Data          96  libspace.o(.bss)
    __temporary_stack_top$libspace           0x20004e0c   Data           0  libspace.o(.bss)



==============================================================================

Memory Map of the image

  Image Entry point : 0x080001ad

  Load Region LR_IROM1 (Base: 0x08000000, Size: 0x00007788, Max: 0x00200000, ABSOLUTE, COMPRESSED[0x0000705c])

    Execution Region ER_IROM1 (Exec base: 0x08000000, Load base: 0x08000000, Size: 0x00007028, Max: 0x00200000, ABSOLUTE)

    Exec Addr    Load Addr    Size         Type   Attr      Idx    E Section Name        Object

    0x08000000   0x08000000   0x000001ac   Data   RO         3068    RESET               startup_stm32f427x.o
    0x080001ac   0x080001ac   0x00000008   Code   RO         3999  * !!!main             c_w.l(__main.o)
    0x080001b4   0x080001b4   0x00000034   Code   RO         4442    !!!scatter          c_w.l(__scatter.o)
    0x080001e8   0x080001e8   0x0000005a   Code   RO         4440    !!dczerorl2         c_w.l(__dczerorl2.o)
    0x08000242   0x08000242   0x00000002   PAD
    0x08000244   0x08000244   0x0000001c   Code   RO         4444    !!handler_zi        c_w.l(__scatter_zi.o)
    0x08000260   0x08000260   0x00000002   Code   RO         4239    .ARM.Collect$$libinit$$00000000  c_w.l(libinit.o)
    0x08000262   0x08000262   0x00000004   Code   RO         4240    .ARM.Collect$$libinit$$00000001  c_w.l(libinit2.o)
    0x08000266   0x08000266   0x00000000   Code   RO         4243    .ARM.Collect$$libinit$$00000004  c_w.l(libinit2.o)
    0x08000266   0x08000266   0x00000000   Code   RO         4246    .ARM.Collect$$libinit$$0000000A  c_w.l(libinit2.o)
    0x08000266   0x08000266   0x00000000   Code   RO         4248    .ARM.Collect$$libinit$$0000000C  c_w.l(libinit2.o)
    0x08000266   0x08000266   0x00000000   Code   RO         4250    .ARM.Collect$$libinit$$0000000E  c_w.l(libinit2.o)
    0x08000266   0x08000266   0x00000000   Code   RO         4253    .ARM.Collect$$libinit$$00000011  c_w.l(libinit2.o)
    0x08000266   0x08000266   0x00000000   Code   RO         4255    .ARM.Collect$$libinit$$00000013  c_w.l(libinit2.o)
    0x08000266   0x08000266   0x00000000   Code   RO         4257    .ARM.Collect$$libinit$$00000015  c_w.l(libinit2.o)
    0x08000266   0x08000266   0x00000000   Code   RO         4259    .ARM.Collect$$libinit$$00000017  c_w.l(libinit2.o)
    0x08000266   0x08000266   0x00000000   Code   RO         4261    .ARM.Collect$$libinit$$00000019  c_w.l(libinit2.o)
    0x08000266   0x08000266   0x00000000   Code   RO         4263    .ARM.Collect$$libinit$$0000001B  c_w.l(libinit2.o)
    0x08000266   0x08000266   0x00000000   Code   RO         4265    .ARM.Collect$$libinit$$0000001D  c_w.l(libinit2.o)
    0x08000266   0x08000266   0x00000000   Code   RO         4267    .ARM.Collect$$libinit$$0000001F  c_w.l(libinit2.o)
    0x08000266   0x08000266   0x00000000   Code   RO         4269    .ARM.Collect$$libinit$$00000021  c_w.l(libinit2.o)
    0x08000266   0x08000266   0x00000000   Code   RO         4271    .ARM.Collect$$libinit$$00000023  c_w.l(libinit2.o)
    0x08000266   0x08000266   0x00000000   Code   RO         4273    .ARM.Collect$$libinit$$00000025  c_w.l(libinit2.o)
    0x08000266   0x08000266   0x00000000   Code   RO         4277    .ARM.Collect$$libinit$$0000002C  c_w.l(libinit2.o)
    0x08000266   0x08000266   0x00000000   Code   RO         4279    .ARM.Collect$$libinit$$0000002E  c_w.l(libinit2.o)
    0x08000266   0x08000266   0x00000000   Code   RO         4281    .ARM.Collect$$libinit$$00000030  c_w.l(libinit2.o)
    0x08000266   0x08000266   0x00000000   Code   RO         4283    .ARM.Collect$$libinit$$00000032  c_w.l(libinit2.o)
    0x08000266   0x08000266   0x00000002   Code   RO         4284    .ARM.Collect$$libinit$$00000033  c_w.l(libinit2.o)
    0x08000268   0x08000268   0x00000002   Code   RO         4419    .ARM.Collect$$libshutdown$$00000000  c_w.l(libshutdown.o)
    0x0800026a   0x0800026a   0x00000000   Code   RO         4286    .ARM.Collect$$libshutdown$$00000002  c_w.l(libshutdown2.o)
    0x0800026a   0x0800026a   0x00000000   Code   RO         4288    .ARM.Collect$$libshutdown$$00000004  c_w.l(libshutdown2.o)
    0x0800026a   0x0800026a   0x00000000   Code   RO         4291    .ARM.Collect$$libshutdown$$00000007  c_w.l(libshutdown2.o)
    0x0800026a   0x0800026a   0x00000000   Code   RO         4294    .ARM.Collect$$libshutdown$$0000000A  c_w.l(libshutdown2.o)
    0x0800026a   0x0800026a   0x00000000   Code   RO         4296    .ARM.Collect$$libshutdown$$0000000C  c_w.l(libshutdown2.o)
    0x0800026a   0x0800026a   0x00000000   Code   RO         4299    .ARM.Collect$$libshutdown$$0000000F  c_w.l(libshutdown2.o)
    0x0800026a   0x0800026a   0x00000002   Code   RO         4300    .ARM.Collect$$libshutdown$$00000010  c_w.l(libshutdown2.o)
    0x0800026c   0x0800026c   0x00000000   Code   RO         4049    .ARM.Collect$$rtentry$$00000000  c_w.l(__rtentry.o)
    0x0800026c   0x0800026c   0x00000000   Code   RO         4110    .ARM.Collect$$rtentry$$00000002  c_w.l(__rtentry2.o)
    0x0800026c   0x0800026c   0x00000006   Code   RO         4122    .ARM.Collect$$rtentry$$00000004  c_w.l(__rtentry4.o)
    0x08000272   0x08000272   0x00000000   Code   RO         4112    .ARM.Collect$$rtentry$$00000009  c_w.l(__rtentry2.o)
    0x08000272   0x08000272   0x00000004   Code   RO         4113    .ARM.Collect$$rtentry$$0000000A  c_w.l(__rtentry2.o)
    0x08000276   0x08000276   0x00000000   Code   RO         4115    .ARM.Collect$$rtentry$$0000000C  c_w.l(__rtentry2.o)
    0x08000276   0x08000276   0x00000008   Code   RO         4116    .ARM.Collect$$rtentry$$0000000D  c_w.l(__rtentry2.o)
    0x0800027e   0x0800027e   0x00000002   Code   RO         4306    .ARM.Collect$$rtexit$$00000000  c_w.l(rtexit.o)
    0x08000280   0x08000280   0x00000000   Code   RO         4362    .ARM.Collect$$rtexit$$00000002  c_w.l(rtexit2.o)
    0x08000280   0x08000280   0x00000004   Code   RO         4363    .ARM.Collect$$rtexit$$00000003  c_w.l(rtexit2.o)
    0x08000284   0x08000284   0x00000006   Code   RO         4364    .ARM.Collect$$rtexit$$00000004  c_w.l(rtexit2.o)
    0x0800028a   0x0800028a   0x00000002   PAD
    0x0800028c   0x0800028c   0x000000b6   Code   RO         3861    .emb_text           port.o
    0x08000342   0x08000342   0x00000002   PAD
    0x08000344   0x08000344   0x00000040   Code   RO         3069    .text               startup_stm32f427x.o
    0x08000384   0x08000384   0x0000008a   Code   RO         3989    .text               c_w.l(rt_memcpy_v6.o)
    0x0800040e   0x0800040e   0x00000064   Code   RO         3991    .text               c_w.l(rt_memcpy_w.o)
    0x08000472   0x08000472   0x00000010   Code   RO         3993    .text               c_w.l(aeabi_memset.o)
    0x08000482   0x08000482   0x0000004e   Code   RO         3995    .text               c_w.l(rt_memclr_w.o)
    0x080004d0   0x080004d0   0x00000006   Code   RO         3997    .text               c_w.l(heapauxi.o)
    0x080004d6   0x080004d6   0x00000016   Code   RO         4050    .text               c_w.l(_rserrno.o)
    0x080004ec   0x080004ec   0x00000044   Code   RO         4063    .text               c_w.l(rt_memclr.o)
    0x08000530   0x08000530   0x00000008   Code   RO         4127    .text               c_w.l(rt_errno_addr_intlibspace.o)
    0x08000538   0x08000538   0x00000008   Code   RO         4150    .text               c_w.l(libspace.o)
    0x08000540   0x08000540   0x0000004a   Code   RO         4155    .text               c_w.l(sys_stackheap_outer.o)
    0x0800058a   0x0800058a   0x00000012   Code   RO         4228    .text               c_w.l(exit.o)
    0x0800059c   0x0800059c   0x00000002   Code   RO         4303    .text               c_w.l(use_no_semi.o)
    0x0800059e   0x0800059e   0x00000000   Code   RO         4305    .text               c_w.l(indicate_semi.o)
    0x0800059e   0x0800059e   0x00000002   PAD
    0x080005a0   0x080005a0   0x0000000c   Code   RO         4359    .text               c_w.l(sys_exit.o)
    0x080005ac   0x080005ac   0x00000018   Code   RO            3    i.BSP_Init          main.o
    0x080005c4   0x080005c4   0x00000004   Code   RO         2939    i.BusFault_Handler  stm32f4xx_it.o
    0x080005c8   0x080005c8   0x0000003c   Code   RO          286    i.CAN1_RX0_IRQHandler  it.o
    0x08000604   0x08000604   0x0000001c   Code   RO          287    i.CAN1_TX_IRQHandler  it.o
    0x08000620   0x08000620   0x0000003c   Code   RO          288    i.CAN2_RX0_IRQHandler  it.o
    0x0800065c   0x0800065c   0x0000001c   Code   RO          289    i.CAN2_TX_IRQHandler  it.o
    0x08000678   0x08000678   0x00000038   Code   RO         1405    i.CAN_ClearFlag     stm32f4xx_can.o
    0x080006b0   0x080006b0   0x000000a8   Code   RO         1406    i.CAN_ClearITPendingBit  stm32f4xx_can.o
    0x08000758   0x08000758   0x00000038   Code   RO         1408    i.CAN_DeInit        stm32f4xx_can.o
    0x08000790   0x08000790   0x00000108   Code   RO         1410    i.CAN_FilterInit    stm32f4xx_can.o
    0x08000898   0x08000898   0x00000120   Code   RO         1412    i.CAN_GetITStatus   stm32f4xx_can.o
    0x080009b8   0x080009b8   0x00000012   Code   RO         1416    i.CAN_ITConfig      stm32f4xx_can.o
    0x080009ca   0x080009ca   0x00000114   Code   RO         1417    i.CAN_Init          stm32f4xx_can.o
    0x08000ade   0x08000ade   0x000000f0   Code   RO         1420    i.CAN_Receive       stm32f4xx_can.o
    0x08000bce   0x08000bce   0x00000020   Code   RO         1423    i.CAN_StructInit    stm32f4xx_can.o
    0x08000bee   0x08000bee   0x00000002   PAD
    0x08000bf0   0x08000bf0   0x00000134   Code   RO          809    i.Chassis_Control   chassis_behavior.o
    0x08000d24   0x08000d24   0x00000118   Code   RO          810    i.Chassis_SetMode   chassis_behavior.o
    0x08000e3c   0x08000e3c   0x00000012   Code   RO         1428    i.CheckITStatus     stm32f4xx_can.o
    0x08000e4e   0x08000e4e   0x00000002   PAD
    0x08000e50   0x08000e50   0x00000028   Code   RO          769    i.DMA1_Stream6_IRQHandler  vofa.o
    0x08000e78   0x08000e78   0x00000034   Code   RO         1567    i.DMA_ClearFlag     stm32f4xx_dma.o
    0x08000eac   0x08000eac   0x00000034   Code   RO         1568    i.DMA_ClearITPendingBit  stm32f4xx_dma.o
    0x08000ee0   0x08000ee0   0x00000016   Code   RO         1569    i.DMA_Cmd           stm32f4xx_dma.o
    0x08000ef6   0x08000ef6   0x00000002   PAD
    0x08000ef8   0x08000ef8   0x00000158   Code   RO         1570    i.DMA_DeInit        stm32f4xx_dma.o
    0x08001050   0x08001050   0x00000016   Code   RO         1571    i.DMA_DoubleBufferModeCmd  stm32f4xx_dma.o
    0x08001066   0x08001066   0x00000018   Code   RO         1572    i.DMA_DoubleBufferModeConfig  stm32f4xx_dma.o
    0x0800107e   0x0800107e   0x00000014   Code   RO         1574    i.DMA_GetCmdStatus  stm32f4xx_dma.o
    0x08001092   0x08001092   0x00000008   Code   RO         1575    i.DMA_GetCurrDataCounter  stm32f4xx_dma.o
    0x0800109a   0x0800109a   0x00000014   Code   RO         1576    i.DMA_GetCurrentMemoryTarget  stm32f4xx_dma.o
    0x080010ae   0x080010ae   0x00000002   PAD
    0x080010b0   0x080010b0   0x00000064   Code   RO         1579    i.DMA_GetITStatus   stm32f4xx_dma.o
    0x08001114   0x08001114   0x00000058   Code   RO         1581    i.DMA_Init          stm32f4xx_dma.o
    0x0800116c   0x0800116c   0x00000004   Code   RO         1584    i.DMA_SetCurrDataCounter  stm32f4xx_dma.o
    0x08001170   0x08001170   0x00000022   Code   RO         1585    i.DMA_StructInit    stm32f4xx_dma.o
    0x08001192   0x08001192   0x00000002   Code   RO         2940    i.DebugMon_Handler  stm32f4xx_it.o
    0x08001194   0x08001194   0x00000090   Code   RO         1758    i.GPIO_Init         stm32f4xx_gpio.o
    0x08001224   0x08001224   0x00000046   Code   RO         1759    i.GPIO_PinAFConfig  stm32f4xx_gpio.o
    0x0800126a   0x0800126a   0x00000004   Code   RO         1765    i.GPIO_ResetBits    stm32f4xx_gpio.o
    0x0800126e   0x0800126e   0x00000004   Code   RO         1766    i.GPIO_SetBits      stm32f4xx_gpio.o
    0x08001272   0x08001272   0x00000002   PAD
    0x08001274   0x08001274   0x00000034   Code   RO         1076    i.Get_CRC16_Check_Sum  crc_check.o
    0x080012a8   0x080012a8   0x00000024   Code   RO         1077    i.Get_CRC8_Check_Sum  crc_check.o
    0x080012cc   0x080012cc   0x00000004   Code   RO         2941    i.HardFault_Handler  stm32f4xx_it.o
    0x080012d0   0x080012d0   0x00000010   Code   RO            4    i.Hardware_Init     main.o
    0x080012e0   0x080012e0   0x00000004   Code   RO         2942    i.MemManage_Handler  stm32f4xx_it.o
    0x080012e4   0x080012e4   0x00000002   Code   RO         2943    i.NMI_Handler       stm32f4xx_it.o
    0x080012e6   0x080012e6   0x00000002   PAD
    0x080012e8   0x080012e8   0x00000078   Code   RO         1360    i.NVIC_Init         misc.o
    0x08001360   0x08001360   0x00000014   Code   RO         1361    i.NVIC_PriorityGroupConfig  misc.o
    0x08001374   0x08001374   0x00000178   Code   RO          645    i.OnDataReceived    imu_data_decode.o
    0x080014ec   0x080014ec   0x000001a4   Code   RO          712    i.Packet_Decode     packet.o
    0x08001690   0x08001690   0x00000020   Code   RO          713    i.Packet_DecodeInit  packet.o
    0x080016b0   0x080016b0   0x00000020   Code   RO         1855    i.RCC_AHB1PeriphClockCmd  stm32f4xx_rcc.o
    0x080016d0   0x080016d0   0x00000020   Code   RO         1864    i.RCC_APB1PeriphClockCmd  stm32f4xx_rcc.o
    0x080016f0   0x080016f0   0x00000020   Code   RO         1866    i.RCC_APB1PeriphResetCmd  stm32f4xx_rcc.o
    0x08001710   0x08001710   0x00000020   Code   RO         1867    i.RCC_APB2PeriphClockCmd  stm32f4xx_rcc.o
    0x08001730   0x08001730   0x00000020   Code   RO         1869    i.RCC_APB2PeriphResetCmd  stm32f4xx_rcc.o
    0x08001750   0x08001750   0x000000e8   Code   RO         1876    i.RCC_GetClocksFreq  stm32f4xx_rcc.o
    0x08001838   0x08001838   0x00000274   Code   RO         1303    i.RM_Judge_DataDecodeByBuff  judge.o
    0x08001aac   0x08001aac   0x0000003a   Code   RO         1304    i.RM_Judge_DataDequeue  judge.o
    0x08001ae6   0x08001ae6   0x00000020   Code   RO         1305    i.RM_Judge_DataEnqueue  judge.o
    0x08001b06   0x08001b06   0x000001e4   Code   RO         1306    i.RM_Judge_DataLength  judge.o
    0x08001cea   0x08001cea   0x000000c6   Code   RO         1307    i.RM_Judge_FindFrame  judge.o
    0x08001db0   0x08001db0   0x000000ec   Code   RO         3031    i.SetSysClock       system_stm32f4xx.o
    0x08001e9c   0x08001e9c   0x00000184   Code   RO          909    i.Start_Task        user_task.o
    0x08002020   0x08002020   0x00000034   Code   RO         3862    i.SysTick_Handler   port.o
    0x08002054   0x08002054   0x00000068   Code   RO         3033    i.SystemInit        system_stm32f4xx.o
    0x080020bc   0x080020bc   0x000001e8   Code   RO          812    i.Task_ChassisCtrl  chassis_behavior.o
    0x080022a4   0x080022a4   0x0000005c   Code   RO          910    i.Task_Hi219mDataDecode  user_task.o
    0x08002300   0x08002300   0x0000002c   Code   RO          911    i.Task_Init         user_task.o
    0x0800232c   0x0800232c   0x00000038   Code   RO          912    i.Task_JudgeDataDecode  user_task.o
    0x08002364   0x08002364   0x00000012   Code   RO          861    i.Task_MiniPCDataDecode  minipc.o
    0x08002376   0x08002376   0x00000012   Code   RO          862    i.Task_MiniPCDataSend  minipc.o
    0x08002388   0x08002388   0x00000012   Code   RO          913    i.Task_Send2Gimbal  user_task.o
    0x0800239a   0x0800239a   0x00000002   Code   RO          290    i.UART7_IRQHandler  it.o
    0x0800239c   0x0800239c   0x00000002   Code   RO          291    i.UART8_IRQHandler  it.o
    0x0800239e   0x0800239e   0x00000002   PAD
    0x080023a0   0x080023a0   0x000000c0   Code   RO          292    i.USART1_IRQHandler  it.o
    0x08002460   0x08002460   0x00000002   Code   RO          293    i.USART3_IRQHandler  it.o
    0x08002462   0x08002462   0x00000002   PAD
    0x08002464   0x08002464   0x000000b4   Code   RO          294    i.USART6_IRQHandler  it.o
    0x08002518   0x08002518   0x00000018   Code   RO         2755    i.USART_Cmd         stm32f4xx_usart.o
    0x08002530   0x08002530   0x00000012   Code   RO         2756    i.USART_DMACmd      stm32f4xx_usart.o
    0x08002542   0x08002542   0x00000002   PAD
    0x08002544   0x08002544   0x000000f0   Code   RO         2757    i.USART_DeInit      stm32f4xx_usart.o
    0x08002634   0x08002634   0x00000054   Code   RO         2759    i.USART_GetITStatus  stm32f4xx_usart.o
    0x08002688   0x08002688   0x0000004a   Code   RO         2761    i.USART_ITConfig    stm32f4xx_usart.o
    0x080026d2   0x080026d2   0x00000002   PAD
    0x080026d4   0x080026d4   0x000000d4   Code   RO         2762    i.USART_Init        stm32f4xx_usart.o
    0x080027a8   0x080027a8   0x00000018   Code   RO         2778    i.USART_StructInit  stm32f4xx_usart.o
    0x080027c0   0x080027c0   0x00000004   Code   RO         2944    i.UsageFault_Handler  stm32f4xx_it.o
    0x080027c4   0x080027c4   0x00000040   Code   RO         1078    i.Verify_CRC16_Check_Sum  crc_check.o
    0x08002804   0x08002804   0x0000002e   Code   RO         1079    i.Verify_CRC8_Check_Sum  crc_check.o
    0x08002832   0x08002832   0x00000030   Code   RO         4104    i.__ARM_fpclassify  m_wm.l(fpclassify.o)
    0x08002862   0x08002862   0x00000006   PAD
    0x08002868   0x08002868   0x000002d8   Code   RO         4011    i.__hardfp_atan     m_wm.l(atan.o)
    0x08002b40   0x08002b40   0x000001f0   Code   RO         4025    i.__hardfp_atan2    m_wm.l(atan2.o)
    0x08002d30   0x08002d30   0x00000104   Code   RO         4037    i.__hardfp_fmod     m_wm.l(fmod.o)
    0x08002e34   0x08002e34   0x000000f8   Code   RO         4106    i.__kernel_poly     m_wm.l(poly.o)
    0x08002f2c   0x08002f2c   0x00000014   Code   RO         4085    i.__mathlib_dbl_infnan  m_wm.l(dunder.o)
    0x08002f40   0x08002f40   0x00000014   Code   RO         4086    i.__mathlib_dbl_infnan2  m_wm.l(dunder.o)
    0x08002f54   0x08002f54   0x00000004   PAD
    0x08002f58   0x08002f58   0x00000020   Code   RO         4087    i.__mathlib_dbl_invalid  m_wm.l(dunder.o)
    0x08002f78   0x08002f78   0x00000020   Code   RO         4090    i.__mathlib_dbl_underflow  m_wm.l(dunder.o)
    0x08002f98   0x08002f98   0x00000022   Code   RO         1204    i.appendValue       arraylist.o
    0x08002fba   0x08002fba   0x00000010   Code   RO         4013    i.atan              m_wm.l(atan.o)
    0x08002fca   0x08002fca   0x00000002   PAD
    0x08002fcc   0x08002fcc   0x00000144   Code   RO          419    i.configCAN_Init    can.o
    0x08003110   0x08003110   0x00000028   Code   RO          813    i.configChassis_ParaInit  chassis_behavior.o
    0x08003138   0x08003138   0x000001dc   Code   RO          445    i.configDMA_Init    dma.o
    0x08003314   0x08003314   0x00000008   Code   RO          614    i.configHi219m_ParaInit  hi219m.o
    0x0800331c   0x0800331c   0x00000384   Code   RO          399    i.configIO_Init     io.o
    0x080036a0   0x080036a0   0x0000014e   Code   RO          465    i.configNVIC_Init   nvic.o
    0x080037ee   0x080037ee   0x00000002   PAD
    0x080037f0   0x080037f0   0x00000254   Code   RO          499    i.configUART_Init   uart.o
    0x08003a44   0x08003a44   0x00000018   Code   RO          771    i.configVOFA_ParaInit  vofa.o
    0x08003a5c   0x08003a5c   0x0000003c   Code   RO          715    i.crc16_update      packet.o
    0x08003a98   0x08003a98   0x00000022   Code   RO         1205    i.deleteAllValue    arraylist.o
    0x08003aba   0x08003aba   0x0000003a   Code   RO         1206    i.deleteRangeValue  arraylist.o
    0x08003af4   0x08003af4   0x00000048   Code   RO         1207    i.deleteValue       arraylist.o
    0x08003b3c   0x08003b3c   0x00000018   Code   RO         4100    i.fabs              m_wm.l(fabs.o)
    0x08003b54   0x08003b54   0x00000034   Code   RO         1208    i.findValue         arraylist.o
    0x08003b88   0x08003b88   0x00000260   Code   RO          615    i.fnHi219m_DataDecode  hi219m.o
    0x08003de8   0x08003de8   0x0000009c   Code   RO          522    i.fnMotor_CanRecvDataDecode  motor.o
    0x08003e84   0x08003e84   0x00000104   Code   RO          587    i.fnRemote_RawDataDecode  rm_remote.o
    0x08003f88   0x08003f88   0x00000006   Code   RO         1209    i.getArrayLength    arraylist.o
    0x08003f8e   0x08003f8e   0x0000001c   Code   RO         1210    i.getValue          arraylist.o
    0x08003faa   0x08003faa   0x00000002   PAD
    0x08003fac   0x08003fac   0x00000014   Code   RO          646    i.get_eular         imu_data_decode.o
    0x08003fc0   0x08003fc0   0x00000014   Code   RO          650    i.get_raw_gyo       imu_data_decode.o
    0x08003fd4   0x08003fd4   0x00000014   Code   RO          651    i.get_raw_mag       imu_data_decode.o
    0x08003fe8   0x08003fe8   0x00000018   Code   RO          652    i.imu_data_decode_init  imu_data_decode.o
    0x08004000   0x08004000   0x0000000e   Code   RO         1214    i.isEmpty           arraylist.o
    0x0800400e   0x0800400e   0x00000012   Code   RO         1215    i.isFull            arraylist.o
    0x08004020   0x08004020   0x00000014   Code   RO            5    i.main              main.o
    0x08004034   0x08004034   0x00000098   Code   RO         3396    i.prvAddCurrentTaskToDelayedList  tasks.o
    0x080040cc   0x080040cc   0x000000b4   Code   RO         3397    i.prvAddNewTaskToReadyList  tasks.o
    0x08004180   0x08004180   0x00000064   Code   RO         3694    i.prvCheckForValidListAndQueue  timers.o
    0x080041e4   0x080041e4   0x00000064   Code   RO         3398    i.prvCheckTasksWaitingTermination  tasks.o
    0x08004248   0x08004248   0x0000002a   Code   RO         3217    i.prvCopyDataFromQueue  queue.o
    0x08004272   0x08004272   0x0000007c   Code   RO         3218    i.prvCopyDataToQueue  queue.o
    0x080042ee   0x080042ee   0x00000012   Code   RO         3399    i.prvDeleteTCB      tasks.o
    0x08004300   0x08004300   0x00000028   Code   RO         3695    i.prvGetNextExpireTime  timers.o
    0x08004328   0x08004328   0x0000007c   Code   RO         3812    i.prvHeapInit       heap_4.o
    0x080043a4   0x080043a4   0x0000002c   Code   RO         3400    i.prvIdleTask       tasks.o
    0x080043d0   0x080043d0   0x00000026   Code   RO         3220    i.prvInitialiseNewQueue  queue.o
    0x080043f6   0x080043f6   0x000000b4   Code   RO         3401    i.prvInitialiseNewTask  tasks.o
    0x080044aa   0x080044aa   0x00000002   PAD
    0x080044ac   0x080044ac   0x00000068   Code   RO         3402    i.prvInitialiseTaskLists  tasks.o
    0x08004514   0x08004514   0x00000068   Code   RO         3813    i.prvInsertBlockIntoFreeList  heap_4.o
    0x0800457c   0x0800457c   0x00000058   Code   RO         3697    i.prvInsertTimerInActiveList  timers.o
    0x080045d4   0x080045d4   0x0000001a   Code   RO         3221    i.prvIsQueueEmpty   queue.o
    0x080045ee   0x080045ee   0x0000001e   Code   RO         3222    i.prvIsQueueFull    queue.o
    0x0800460c   0x0800460c   0x00000064   Code   RO         3698    i.prvProcessExpiredTimer  timers.o
    0x08004670   0x08004670   0x000000f8   Code   RO         3699    i.prvProcessReceivedCommands  timers.o
    0x08004768   0x08004768   0x00000074   Code   RO         3700    i.prvProcessTimerOrBlockTask  timers.o
    0x080047dc   0x080047dc   0x00000034   Code   RO         3403    i.prvResetNextTaskUnblockTime  tasks.o
    0x08004810   0x08004810   0x0000002c   Code   RO         3701    i.prvSampleTimeNow  timers.o
    0x0800483c   0x0800483c   0x000000a0   Code   RO         3702    i.prvSwitchTimerLists  timers.o
    0x080048dc   0x080048dc   0x00000040   Code   RO         3863    i.prvTaskExitError  port.o
    0x0800491c   0x0800491c   0x0000001a   Code   RO         3703    i.prvTimerTask      timers.o
    0x08004936   0x08004936   0x0000007e   Code   RO         3223    i.prvUnlockQueue    queue.o
    0x080049b4   0x080049b4   0x00000148   Code   RO         3814    i.pvPortMalloc      heap_4.o
    0x08004afc   0x08004afc   0x00000020   Code   RO         3405    i.pvTaskIncrementMutexHeldCount  tasks.o
    0x08004b1c   0x08004b1c   0x0000002c   Code   RO         3864    i.pxPortInitialiseStack  port.o
    0x08004b48   0x08004b48   0x00000070   Code   RO          524    i.s_fnM3508_RawDataDecode  motor.o
    0x08004bb8   0x08004bb8   0x00000120   Code   RO          525    i.s_fnM6020_RawDataDecode  motor.o
    0x08004cd8   0x08004cd8   0x00000028   Code   RO         3180    i.uxListRemove      list.o
    0x08004d00   0x08004d00   0x00000002   Code   RO         2945    i.vApplicationIdleHook  stm32f4xx_it.o
    0x08004d02   0x08004d02   0x00000016   Code   RO         2946    i.vApplicationMallocFailedHook  stm32f4xx_it.o
    0x08004d18   0x08004d18   0x00000002   Code   RO         2947    i.vApplicationStackOverflowHook  stm32f4xx_it.o
    0x08004d1a   0x08004d1a   0x00000002   Code   RO         2948    i.vApplicationTickHook  stm32f4xx_it.o
    0x08004d1c   0x08004d1c   0x0000001a   Code   RO         3181    i.vListInitialise   list.o
    0x08004d36   0x08004d36   0x00000006   Code   RO         3182    i.vListInitialiseItem  list.o
    0x08004d3c   0x08004d3c   0x00000034   Code   RO         3183    i.vListInsert       list.o
    0x08004d70   0x08004d70   0x00000018   Code   RO         3184    i.vListInsertEnd    list.o
    0x08004d88   0x08004d88   0x00000054   Code   RO         3866    i.vPortEnterCritical  port.o
    0x08004ddc   0x08004ddc   0x0000003c   Code   RO         3867    i.vPortExitCritical  port.o
    0x08004e18   0x08004e18   0x00000094   Code   RO         3815    i.vPortFree         heap_4.o
    0x08004eac   0x08004eac   0x00000014   Code   RO         3868    i.vPortSetupTimerInterrupt  port.o
    0x08004ec0   0x08004ec0   0x00000078   Code   RO         3869    i.vPortValidateInterruptPriority  port.o
    0x08004f38   0x08004f38   0x0000002c   Code   RO         3227    i.vQueueAddToRegistry  queue.o
    0x08004f64   0x08004f64   0x0000004a   Code   RO         3230    i.vQueueWaitForMessageRestricted  queue.o
    0x08004fae   0x08004fae   0x00000002   PAD
    0x08004fb0   0x08004fb0   0x0000005c   Code   RO         3411    i.vTaskDelay        tasks.o
    0x0800500c   0x0800500c   0x000000d4   Code   RO         3412    i.vTaskDelayUntil   tasks.o
    0x080050e0   0x080050e0   0x000000f4   Code   RO         3413    i.vTaskDelete       tasks.o
    0x080051d4   0x080051d4   0x0000000c   Code   RO         3415    i.vTaskMissedYield  tasks.o
    0x080051e0   0x080051e0   0x00000038   Code   RO         3417    i.vTaskPlaceOnEventList  tasks.o
    0x08005218   0x08005218   0x00000040   Code   RO         3418    i.vTaskPlaceOnEventListRestricted  tasks.o
    0x08005258   0x08005258   0x000000b0   Code   RO         3420    i.vTaskPriorityInherit  tasks.o
    0x08005308   0x08005308   0x00000030   Code   RO         3423    i.vTaskSetTimeOutState  tasks.o
    0x08005338   0x08005338   0x00000094   Code   RO         3424    i.vTaskStartScheduler  tasks.o
    0x080053cc   0x080053cc   0x00000010   Code   RO         3426    i.vTaskSuspendAll   tasks.o
    0x080053dc   0x080053dc   0x000000c4   Code   RO         3427    i.vTaskSwitchContext  tasks.o
    0x080054a0   0x080054a0   0x0000013c   Code   RO         3870    i.xPortStartScheduler  port.o
    0x080055dc   0x080055dc   0x00000058   Code   RO         3233    i.xQueueGenericCreate  queue.o
    0x08005634   0x08005634   0x000001c4   Code   RO         3234    i.xQueueGenericReceive  queue.o
    0x080057f8   0x080057f8   0x00000098   Code   RO         3235    i.xQueueGenericReset  queue.o
    0x08005890   0x08005890   0x000001a8   Code   RO         3236    i.xQueueGenericSend  queue.o
    0x08005a38   0x08005a38   0x000000f8   Code   RO         3237    i.xQueueGenericSendFromISR  queue.o
    0x08005b30   0x08005b30   0x000000e0   Code   RO         3238    i.xQueueGiveFromISR  queue.o
    0x08005c10   0x08005c10   0x0000008c   Code   RO         3428    i.xTaskCheckForTimeOut  tasks.o
    0x08005c9c   0x08005c9c   0x00000060   Code   RO         3429    i.xTaskCreate       tasks.o
    0x08005cfc   0x08005cfc   0x00000020   Code   RO         3433    i.xTaskGetSchedulerState  tasks.o
    0x08005d1c   0x08005d1c   0x0000000c   Code   RO         3434    i.xTaskGetTickCount  tasks.o
    0x08005d28   0x08005d28   0x00000154   Code   RO         3436    i.xTaskIncrementTick  tasks.o
    0x08005e7c   0x08005e7c   0x000000c8   Code   RO         3439    i.xTaskPriorityDisinherit  tasks.o
    0x08005f44   0x08005f44   0x00000098   Code   RO         3440    i.xTaskRemoveFromEventList  tasks.o
    0x08005fdc   0x08005fdc   0x00000104   Code   RO         3442    i.xTaskResumeAll    tasks.o
    0x080060e0   0x080060e0   0x00000058   Code   RO         3707    i.xTimerCreateTimerTask  timers.o
    0x08006138   0x08006138   0x00000084   Code   RO         3708    i.xTimerGenericCommand  timers.o
    0x080061bc   0x080061bc   0x00000018   Code   RO         4065    x$fpl$basic         fz_wm.l(basic.o)
    0x080061d4   0x080061d4   0x00000062   Code   RO         4001    x$fpl$d2f           fz_wm.l(d2f.o)
    0x08006236   0x08006236   0x00000002   PAD
    0x08006238   0x08006238   0x00000150   Code   RO         4003    x$fpl$dadd          fz_wm.l(daddsub_clz.o)
    0x08006388   0x08006388   0x000002b0   Code   RO         4068    x$fpl$ddiv          fz_wm.l(ddiv.o)
    0x08006638   0x08006638   0x00000154   Code   RO         4071    x$fpl$dmul          fz_wm.l(dmul.o)
    0x0800678c   0x0800678c   0x0000009c   Code   RO         4073    x$fpl$dnaninf       fz_wm.l(dnaninf.o)
    0x08006828   0x08006828   0x00000150   Code   RO         4075    x$fpl$drem          fz_wm.l(drem_clz.o)
    0x08006978   0x08006978   0x0000000c   Code   RO         4077    x$fpl$dretinf       fz_wm.l(dretinf.o)
    0x08006984   0x08006984   0x00000016   Code   RO         4004    x$fpl$drsb          fz_wm.l(daddsub_clz.o)
    0x0800699a   0x0800699a   0x00000002   PAD
    0x0800699c   0x0800699c   0x000001d4   Code   RO         4005    x$fpl$dsub          fz_wm.l(daddsub_clz.o)
    0x08006b70   0x08006b70   0x00000056   Code   RO         4009    x$fpl$f2d           fz_wm.l(f2d.o)
    0x08006bc6   0x08006bc6   0x0000008c   Code   RO         4079    x$fpl$fnaninf       fz_wm.l(fnaninf.o)
    0x08006c52   0x08006c52   0x0000000a   Code   RO         4357    x$fpl$fpinit        fz_wm.l(fpinit.o)
    0x08006c5c   0x08006c5c   0x0000000a   Code   RO         4081    x$fpl$fretinf       fz_wm.l(fretinf.o)
    0x08006c66   0x08006c66   0x00000000   Code   RO         4083    x$fpl$usenofp       fz_wm.l(usenofp.o)
    0x08006c66   0x08006c66   0x00000302   Data   RO         1080    .constdata          crc_check.o
    0x08006f68   0x08006f68   0x00000098   Data   RO         4014    .constdata          m_wm.l(atan.o)
    0x08007000   0x08007000   0x00000008   Data   RO         4108    .constdata          m_wm.l(qnan.o)
    0x08007008   0x08007008   0x00000020   Data   RO         4438    Region$$Table       anon$$obj.o


    Execution Region RW_IRAM2 (Exec base: 0x10000000, Load base: 0x0800705c, Size: 0x00000000, Max: 0x00010000, ABSOLUTE)

    **** No section assigned to this execution region ****


    Execution Region RW_IRAM1 (Exec base: 0x20000000, Load base: 0x08007028, Size: 0x00005410, Max: 0x00030000, ABSOLUTE, COMPRESSED[0x00000034])

    Exec Addr    Load Addr    Size         Type   Attr      Idx    E Section Name        Object

    0x20000000   COMPRESSED   0x00000008   Data   RW          296    .data               it.o
    0x20000008   COMPRESSED   0x00000620   Data   RW          528    .data               motor.o
    0x20000628   COMPRESSED   0x00000001   Data   RW          589    .data               rm_remote.o
    0x20000629   COMPRESSED   0x00000003   PAD
    0x2000062c   COMPRESSED   0x0000000c   Data   RW          617    .data               hi219m.o
    0x20000638   COMPRESSED   0x00000013   Data   RW          654    .data               imu_data_decode.o
    0x2000064b   COMPRESSED   0x00000001   PAD
    0x2000064c   COMPRESSED   0x00000011   Data   RW          716    .data               packet.o
    0x2000065d   COMPRESSED   0x00000003   PAD
    0x20000660   COMPRESSED   0x00000048   Data   RW          815    .data               chassis_behavior.o
    0x200006a8   COMPRESSED   0x00000028   Data   RW          914    .data               user_task.o
    0x200006d0   COMPRESSED   0x00000002   Data   RW         1081    .data               crc_check.o
    0x200006d2   COMPRESSED   0x00000007   Data   RW         1310    .data               judge.o
    0x200006d9   COMPRESSED   0x00000010   Data   RW         1908    .data               stm32f4xx_rcc.o
    0x200006e9   COMPRESSED   0x00000003   PAD
    0x200006ec   COMPRESSED   0x0000003c   Data   RW         3445    .data               tasks.o
    0x20000728   COMPRESSED   0x00000014   Data   RW         3714    .data               timers.o
    0x2000073c   COMPRESSED   0x00000018   Data   RW         3820    .data               heap_4.o
    0x20000754   COMPRESSED   0x0000000c   Data   RW         3871    .data               port.o
    0x20000760        -       0x00000028   Zero   RW          295    .bss                it.o
    0x20000788        -       0x00000084   Zero   RW          588    .bss                rm_remote.o
    0x2000080c        -       0x000000bc   Zero   RW          616    .bss                hi219m.o
    0x200008c8        -       0x000000a8   Zero   RW          653    .bss                imu_data_decode.o
    0x20000970        -       0x0000001c   Zero   RW          772    .bss                vofa.o
    0x2000098c        -       0x000001d0   Zero   RW          814    .bss                chassis_behavior.o
    0x20000b5c        -       0x00000088   Zero   RW          863    .bss                minipc.o
    0x20000be4        -       0x00000497   Zero   RW         1309    .bss                judge.o
    0x2000107b   COMPRESSED   0x00000001   PAD
    0x2000107c        -       0x00000040   Zero   RW         3245    .bss                queue.o
    0x200010bc        -       0x000000c8   Zero   RW         3444    .bss                tasks.o
    0x20001184        -       0x00000028   Zero   RW         3713    .bss                timers.o
    0x200011ac        -       0x00003c00   Zero   RW         3819    .bss                heap_4.o
    0x20004dac        -       0x00000060   Zero   RW         4151    .bss                c_w.l(libspace.o)
    0x20004e0c   COMPRESSED   0x00000004   PAD
    0x20004e10        -       0x00000200   Zero   RW         3067    HEAP                startup_stm32f427x.o
    0x20005010        -       0x00000400   Zero   RW         3066    STACK               startup_stm32f427x.o


==============================================================================

Image component sizes


      Code (inc. data)   RO Data    RW Data    ZI Data      Debug   Object Name

       316          0          0          0          0       7443   arraylist.o
       324         10          0          0          0        797   can.o
      1116        108          0         72        464       4410   chassis_behavior.o
       198         16        770          2          0       3756   crc_check.o
       476         40          0          0          0        861   dma.o
         0          0          0          0          0      11788   event_groups.o
       704         64          0         24      15360       4547   heap_4.o
       616         34          0         12        188       2808   hi219m.o
       460         52          0         19        168       3871   imu_data_decode.o
       900         26          0          0          0       1060   io.o
       554         92          0          8         40     247043   it.o
      1400         38          0          7       1175      15312   judge.o
       148          0          0          0          0       3362   list.o
        60          0          0          0          0     324327   main.o
        36          0          0          0        136       3225   minipc.o
       140         24          0          0          0       1663   misc.o
       556         52          0       1568          0       4967   motor.o
       334          0          0          0          0        746   nvic.o
       512         40          0         17          0       3256   packet.o
       942         92          0         12          0      11577   port.o
      2092         22          0          0         64      15009   queue.o
       260         12          0          1        132       2227   rm_remote.o
        64         26        428          0       1536        840   startup_stm32f427x.o
      1416         26          0          0          0       7589   stm32f4xx_can.o
       790         72          0          0          0       9450   stm32f4xx_dma.o
       222          0          0          0          0       3011   stm32f4xx_gpio.o
        48          0          0          0          0      12854   stm32f4xx_it.o
       392         48          0         16          0       5941   stm32f4xx_rcc.o
       676         42          0          0          0       5679   stm32f4xx_usart.o
       340         32          0          0          0       1661   system_stm32f4xx.o
      3358        422          0         60        200      24585   tasks.o
      1142        118          0         20         40       9495   timers.o
       596         32          0          0          0        850   uart.o
       598        242          0         40          0       3647   user_task.o
        64         16          0          0         28       1763   vofa.o

    ----------------------------------------------------------------------
     21880       1798       1230       1888      19532     761420   Object Totals
         0          0         32          0          0          0   (incl. Generated)
        30          0          0         10          1          0   (incl. Padding)

    ----------------------------------------------------------------------

      Code (inc. data)   RO Data    RW Data    ZI Data      Debug   Library Member Name

        90          0          0          0          0          0   __dczerorl2.o
         8          0          0          0          0         68   __main.o
         0          0          0          0          0          0   __rtentry.o
        12          0          0          0          0          0   __rtentry2.o
         6          0          0          0          0          0   __rtentry4.o
        52          8          0          0          0          0   __scatter.o
        28          0          0          0          0          0   __scatter_zi.o
        22          0          0          0          0        100   _rserrno.o
        16          0          0          0          0         68   aeabi_memset.o
        18          0          0          0          0         80   exit.o
         6          0          0          0          0        152   heapauxi.o
         0          0          0          0          0          0   indicate_semi.o
         2          0          0          0          0          0   libinit.o
         6          0          0          0          0          0   libinit2.o
         2          0          0          0          0          0   libshutdown.o
         2          0          0          0          0          0   libshutdown2.o
         8          4          0          0         96         68   libspace.o
         8          4          0          0          0         68   rt_errno_addr_intlibspace.o
        68          0          0          0          0         68   rt_memclr.o
        78          0          0          0          0         80   rt_memclr_w.o
       138          0          0          0          0         68   rt_memcpy_v6.o
       100          0          0          0          0         80   rt_memcpy_w.o
         2          0          0          0          0          0   rtexit.o
        10          0          0          0          0          0   rtexit2.o
        12          4          0          0          0         68   sys_exit.o
        74          0          0          0          0         80   sys_stackheap_outer.o
         2          0          0          0          0         68   use_no_semi.o
        24          0          0          0          0        164   basic.o
        98          4          0          0          0        140   d2f.o
       826         16          0          0          0        492   daddsub_clz.o
       688        140          0          0          0        256   ddiv.o
       340         12          0          0          0        152   dmul.o
       156          4          0          0          0        140   dnaninf.o
       336         12          0          0          0        136   drem_clz.o
        12          0          0          0          0        116   dretinf.o
        86          4          0          0          0        132   f2d.o
       140          4          0          0          0        132   fnaninf.o
        10          0          0          0          0        116   fpinit.o
        10          0          0          0          0        116   fretinf.o
         0          0          0          0          0          0   usenofp.o
       744        106        152          0          0        352   atan.o
       496         64          0          0          0        192   atan2.o
       104         16          0          0          0        496   dunder.o
        24          0          0          0          0        124   fabs.o
       260          6          0          0          0        144   fmod.o
        48          0          0          0          0        124   fpclassify.o
       248          0          0          0          0        152   poly.o
         0          0          8          0          0          0   qnan.o

    ----------------------------------------------------------------------
      5442        408        160          0        100       4792   Library Totals
        22          0          0          0          4          0   (incl. Padding)

    ----------------------------------------------------------------------

      Code (inc. data)   RO Data    RW Data    ZI Data      Debug   Library Name

       770         20          0          0         96       1116   c_w.l
      2726        196          0          0          0       2092   fz_wm.l
      1924        192        160          0          0       1584   m_wm.l

    ----------------------------------------------------------------------
      5442        408        160          0        100       4792   Library Totals

    ----------------------------------------------------------------------

==============================================================================


      Code (inc. data)   RO Data    RW Data    ZI Data      Debug   

     27322       2206       1390       1888      19632     745192   Grand Totals
     27322       2206       1390         52      19632     745192   ELF Image Totals (compressed)
     27322       2206       1390         52          0          0   ROM Totals

==============================================================================

    Total RO  Size (Code + RO Data)                28712 (  28.04kB)
    Total RW  Size (RW Data + ZI Data)             21520 (  21.02kB)
    Total ROM Size (Code + RO Data + RW Data)      28764 (  28.09kB)

==============================================================================

